
/home/chandler/Projects/hAUptic-paddle/Software/build/main.elf:     file format elf32-littlearm

Sections:
Idx Name          Size      VMA       LMA       File off  Algn
  0 .boot2        00000100  10000000  10000000  00001000  2**0
                  CONTENTS, ALLOC, LOAD, READONLY, CODE
  1 .text         00004100  10000100  10000100  00001100  2**3
                  CONTENTS, ALLOC, LOAD, READONLY, CODE
  2 .rodata       00000464  10004200  10004200  00005200  2**2
                  CONTENTS, ALLOC, LOAD, READONLY, DATA
  3 .ARM.extab    00000130  10004664  10004664  00005664  2**2
                  CONTENTS, ALLOC, LOAD, READONLY, DATA
  4 .ARM.exidx    00000208  10004794  10004794  00005794  2**2
                  CONTENTS, ALLOC, LOAD, READONLY, DATA
  5 .binary_info  0000001c  1000499c  1000499c  0000599c  2**2
                  CONTENTS, ALLOC, LOAD, DATA
  6 .ram_vector_table 000000c0  20000000  20000000  000079e8  2**2
                  CONTENTS
  7 .data         00001928  200000c0  100049b8  000060c0  2**4
                  CONTENTS, ALLOC, LOAD, CODE
  8 .uninitialized_data 00000000  200019e8  200019e8  00007aa8  2**0
                  CONTENTS
  9 .scratch_x    00000000  20040000  20040000  00007aa8  2**0
                  CONTENTS
 10 .scratch_y    00000000  20041000  20041000  00007aa8  2**0
                  CONTENTS
 11 .bss          00000434  200019e8  200019e8  000079e8  2**3
                  ALLOC
 12 .heap         00000800  20001e1c  20001e1c  00007aa8  2**2
                  CONTENTS, READONLY
 13 .stack_dummy  00000800  20041000  20041000  000082c0  2**5
                  CONTENTS, READONLY
 14 .ARM.attributes 00000028  00000000  00000000  00008ac0  2**0
                  CONTENTS, READONLY
 15 .comment      000000a7  00000000  00000000  00008ae8  2**0
                  CONTENTS, READONLY
 16 .debug_info   000446bb  00000000  00000000  00008b8f  2**0
                  CONTENTS, READONLY, DEBUGGING, OCTETS
 17 .debug_abbrev 000092b2  00000000  00000000  0004d24a  2**0
                  CONTENTS, READONLY, DEBUGGING, OCTETS
 18 .debug_loc    0001d691  00000000  00000000  000564fc  2**0
                  CONTENTS, READONLY, DEBUGGING, OCTETS
 19 .debug_aranges 00000f70  00000000  00000000  00073b90  2**3
                  CONTENTS, READONLY, DEBUGGING, OCTETS
 20 .debug_ranges 00004dc8  00000000  00000000  00074b00  2**0
                  CONTENTS, READONLY, DEBUGGING, OCTETS
 21 .debug_line   00010cbc  00000000  00000000  000798c8  2**0
                  CONTENTS, READONLY, DEBUGGING, OCTETS
 22 .debug_str    0000b204  00000000  00000000  0008a584  2**0
                  CONTENTS, READONLY, DEBUGGING, OCTETS
 23 .debug_frame  00002bb0  00000000  00000000  00095788  2**2
                  CONTENTS, READONLY, DEBUGGING, OCTETS
 24 .stab         00000030  00000000  00000000  000984bc  2**2
                  CONTENTS, READONLY, DEBUGGING
 25 .stabstr      00000183  00000000  00000000  00098338  2**0
                  CONTENTS, READONLY, DEBUGGING

/home/chandler/Projects/hAUptic-paddle/Software/build/main.elf:     file format elf32-littlearm


Disassembly of section .boot2:

10000000 <__boot2_start__>:
10000000:	4b32b500 	.word	0x4b32b500
10000004:	60582021 	.word	0x60582021
10000008:	21026898 	.word	0x21026898
1000000c:	60984388 	.word	0x60984388
10000010:	611860d8 	.word	0x611860d8
10000014:	4b2e6158 	.word	0x4b2e6158
10000018:	60992100 	.word	0x60992100
1000001c:	61592102 	.word	0x61592102
10000020:	22f02101 	.word	0x22f02101
10000024:	492b5099 	.word	0x492b5099
10000028:	21016019 	.word	0x21016019
1000002c:	20356099 	.word	0x20356099
10000030:	f844f000 	.word	0xf844f000
10000034:	42902202 	.word	0x42902202
10000038:	2106d014 	.word	0x2106d014
1000003c:	f0006619 	.word	0xf0006619
10000040:	6e19f834 	.word	0x6e19f834
10000044:	66192101 	.word	0x66192101
10000048:	66182000 	.word	0x66182000
1000004c:	f000661a 	.word	0xf000661a
10000050:	6e19f82c 	.word	0x6e19f82c
10000054:	6e196e19 	.word	0x6e196e19
10000058:	f0002005 	.word	0xf0002005
1000005c:	2101f82f 	.word	0x2101f82f
10000060:	d1f94208 	.word	0xd1f94208
10000064:	60992100 	.word	0x60992100
10000068:	6019491b 	.word	0x6019491b
1000006c:	60592100 	.word	0x60592100
10000070:	481b491a 	.word	0x481b491a
10000074:	21016001 	.word	0x21016001
10000078:	21eb6099 	.word	0x21eb6099
1000007c:	21a06619 	.word	0x21a06619
10000080:	f0006619 	.word	0xf0006619
10000084:	2100f812 	.word	0x2100f812
10000088:	49166099 	.word	0x49166099
1000008c:	60014814 	.word	0x60014814
10000090:	60992101 	.word	0x60992101
10000094:	2800bc01 	.word	0x2800bc01
10000098:	4700d000 	.word	0x4700d000
1000009c:	49134812 	.word	0x49134812
100000a0:	c8036008 	.word	0xc8036008
100000a4:	8808f380 	.word	0x8808f380
100000a8:	b5034708 	.word	0xb5034708
100000ac:	20046a99 	.word	0x20046a99
100000b0:	d0fb4201 	.word	0xd0fb4201
100000b4:	42012001 	.word	0x42012001
100000b8:	bd03d1f8 	.word	0xbd03d1f8
100000bc:	6618b502 	.word	0x6618b502
100000c0:	f7ff6618 	.word	0xf7ff6618
100000c4:	6e18fff2 	.word	0x6e18fff2
100000c8:	bd026e18 	.word	0xbd026e18
100000cc:	40020000 	.word	0x40020000
100000d0:	18000000 	.word	0x18000000
100000d4:	00070000 	.word	0x00070000
100000d8:	005f0300 	.word	0x005f0300
100000dc:	00002221 	.word	0x00002221
100000e0:	180000f4 	.word	0x180000f4
100000e4:	a0002022 	.word	0xa0002022
100000e8:	10000100 	.word	0x10000100
100000ec:	e000ed08 	.word	0xe000ed08
	...
100000fc:	7a4eb274 	.word	0x7a4eb274

Disassembly of section .text:

10000100 <__VECTOR_TABLE>:
10000100:	20042000 	.word	0x20042000
10000104:	100001f7 	.word	0x100001f7
10000108:	100001c3 	.word	0x100001c3
1000010c:	100001c5 	.word	0x100001c5
10000110:	100001c1 	.word	0x100001c1
10000114:	100001c1 	.word	0x100001c1
10000118:	100001c1 	.word	0x100001c1
1000011c:	100001c1 	.word	0x100001c1
10000120:	100001c1 	.word	0x100001c1
10000124:	100001c1 	.word	0x100001c1
10000128:	100001c1 	.word	0x100001c1
1000012c:	100001c7 	.word	0x100001c7
10000130:	100001c1 	.word	0x100001c1
10000134:	100001c1 	.word	0x100001c1
10000138:	100001c9 	.word	0x100001c9
1000013c:	100001cb 	.word	0x100001cb
10000140:	100001cd 	.word	0x100001cd
10000144:	100001cd 	.word	0x100001cd
10000148:	100001cd 	.word	0x100001cd
1000014c:	100001cd 	.word	0x100001cd
10000150:	100001cd 	.word	0x100001cd
10000154:	100001cd 	.word	0x100001cd
10000158:	100001cd 	.word	0x100001cd
1000015c:	100001cd 	.word	0x100001cd
10000160:	100001cd 	.word	0x100001cd
10000164:	100001cd 	.word	0x100001cd
10000168:	100001cd 	.word	0x100001cd
1000016c:	100001cd 	.word	0x100001cd
10000170:	100001cd 	.word	0x100001cd
10000174:	100001cd 	.word	0x100001cd
10000178:	100001cd 	.word	0x100001cd
1000017c:	100001cd 	.word	0x100001cd
10000180:	100001cd 	.word	0x100001cd
10000184:	100001cd 	.word	0x100001cd
10000188:	100001cd 	.word	0x100001cd
1000018c:	100001cd 	.word	0x100001cd
10000190:	100001cd 	.word	0x100001cd
10000194:	100001cd 	.word	0x100001cd
10000198:	100001cd 	.word	0x100001cd
1000019c:	100001cd 	.word	0x100001cd
100001a0:	100001cd 	.word	0x100001cd
100001a4:	100001cd 	.word	0x100001cd
100001a8:	100001cd 	.word	0x100001cd
100001ac:	100001cd 	.word	0x100001cd
100001b0:	100001cd 	.word	0x100001cd
100001b4:	100001cd 	.word	0x100001cd
100001b8:	100001cd 	.word	0x100001cd
100001bc:	100001cd 	.word	0x100001cd

100001c0 <isr_invalid>:
100001c0:	be00      	bkpt	0x0000

100001c2 <isr_nmi>:
100001c2:	be00      	bkpt	0x0000

100001c4 <isr_hardfault>:
100001c4:	be00      	bkpt	0x0000

100001c6 <isr_svcall>:
100001c6:	be00      	bkpt	0x0000

100001c8 <isr_pendsv>:
100001c8:	be00      	bkpt	0x0000

100001ca <isr_systick>:
100001ca:	be00      	bkpt	0x0000

100001cc <__unhandled_user_irq>:
100001cc:	f000 f84b 	bl	10000266 <__get_current_exception>
100001d0:	3810      	subs	r0, #16

100001d2 <unhandled_user_irq_num_in_r0>:
100001d2:	be00      	bkpt	0x0000

100001d4 <binary_info_header>:
100001d4:	7188ebf2 	.word	0x7188ebf2
100001d8:	1000499c 	.word	0x1000499c
100001dc:	100049b8 	.word	0x100049b8
100001e0:	10000234 	.word	0x10000234
100001e4:	e71aa390 	.word	0xe71aa390

100001e8 <_entry_point>:
100001e8:	2000      	movs	r0, #0
100001ea:	4921      	ldr	r1, [pc, #132]	; (10000270 <__get_current_exception+0xa>)
100001ec:	6008      	str	r0, [r1, #0]
100001ee:	c806      	ldmia	r0!, {r1, r2}
100001f0:	f381 8808 	msr	MSP, r1
100001f4:	4710      	bx	r2

100001f6 <_reset_handler>:
100001f6:	481f      	ldr	r0, [pc, #124]	; (10000274 <__get_current_exception+0xe>)
100001f8:	6800      	ldr	r0, [r0, #0]
100001fa:	2800      	cmp	r0, #0
100001fc:	d12f      	bne.n	1000025e <hold_non_core0_in_bootrom>
100001fe:	a40d      	add	r4, pc, #52	; (adr r4, 10000234 <data_cpy_table>)
10000200:	cc0e      	ldmia	r4!, {r1, r2, r3}
10000202:	2900      	cmp	r1, #0
10000204:	d002      	beq.n	1000020c <_reset_handler+0x16>
10000206:	f000 f812 	bl	1000022e <data_cpy>
1000020a:	e7f9      	b.n	10000200 <_reset_handler+0xa>
1000020c:	491a      	ldr	r1, [pc, #104]	; (10000278 <__get_current_exception+0x12>)
1000020e:	4a1b      	ldr	r2, [pc, #108]	; (1000027c <__get_current_exception+0x16>)
10000210:	2000      	movs	r0, #0
10000212:	e000      	b.n	10000216 <bss_fill_test>

10000214 <bss_fill_loop>:
10000214:	c101      	stmia	r1!, {r0}

10000216 <bss_fill_test>:
10000216:	4291      	cmp	r1, r2
10000218:	d1fc      	bne.n	10000214 <bss_fill_loop>

1000021a <platform_entry>:
1000021a:	4919      	ldr	r1, [pc, #100]	; (10000280 <__get_current_exception+0x1a>)
1000021c:	4788      	blx	r1
1000021e:	4919      	ldr	r1, [pc, #100]	; (10000284 <__get_current_exception+0x1e>)
10000220:	4788      	blx	r1
10000222:	4919      	ldr	r1, [pc, #100]	; (10000288 <__get_current_exception+0x22>)
10000224:	4788      	blx	r1
10000226:	be00      	bkpt	0x0000
10000228:	e7fd      	b.n	10000226 <platform_entry+0xc>

1000022a <data_cpy_loop>:
1000022a:	c901      	ldmia	r1!, {r0}
1000022c:	c201      	stmia	r2!, {r0}

1000022e <data_cpy>:
1000022e:	429a      	cmp	r2, r3
10000230:	d3fb      	bcc.n	1000022a <data_cpy_loop>
10000232:	4770      	bx	lr

10000234 <data_cpy_table>:
10000234:	100049b8 	.word	0x100049b8
10000238:	200000c0 	.word	0x200000c0
1000023c:	200019e8 	.word	0x200019e8
10000240:	100062e0 	.word	0x100062e0
10000244:	20040000 	.word	0x20040000
10000248:	20040000 	.word	0x20040000
1000024c:	100062e0 	.word	0x100062e0
10000250:	20041000 	.word	0x20041000
10000254:	20041000 	.word	0x20041000
10000258:	00000000 	.word	0x00000000
1000025c:	4770      	bx	lr

1000025e <hold_non_core0_in_bootrom>:
1000025e:	480b      	ldr	r0, [pc, #44]	; (1000028c <__get_current_exception+0x26>)
10000260:	f001 fbd4 	bl	10001a0c <rom_func_lookup>
10000264:	4700      	bx	r0

10000266 <__get_current_exception>:
10000266:	f3ef 8005 	mrs	r0, IPSR
1000026a:	b2c0      	uxtb	r0, r0
1000026c:	4770      	bx	lr
1000026e:	0000      	.short	0x0000
10000270:	e000ed08 	.word	0xe000ed08
10000274:	d0000000 	.word	0xd0000000
10000278:	200019e8 	.word	0x200019e8
1000027c:	20001e1c 	.word	0x20001e1c
10000280:	100011a1 	.word	0x100011a1
10000284:	1000035d 	.word	0x1000035d
10000288:	100012c9 	.word	0x100012c9
1000028c:	00005657 	.word	0x00005657

10000290 <__bi_50>:
10000290:	50520006 5360b3ab 1000427c              ..RP..`S|B..

1000029c <__bi_38>:
1000029c:	50520006 02031c86 1000428c              ..RP.....B..

100002a8 <__bi_30>:
100002a8:	50520006 9da22254 10004294              ..RPT"...B..

100002b4 <__bi_22>:
100002b4:	50520005 68f465de 100062e0              ..RP.e.h.b..

100002c0 <_init>:
100002c0:	b5f8      	push	{r3, r4, r5, r6, r7, lr}
100002c2:	46c0      	nop			; (mov r8, r8)

100002c4 <deregister_tm_clones>:
100002c4:	4804      	ldr	r0, [pc, #16]	; (100002d8 <deregister_tm_clones+0x14>)
100002c6:	4b05      	ldr	r3, [pc, #20]	; (100002dc <deregister_tm_clones+0x18>)
100002c8:	b510      	push	{r4, lr}
100002ca:	4283      	cmp	r3, r0
100002cc:	d003      	beq.n	100002d6 <deregister_tm_clones+0x12>
100002ce:	4b04      	ldr	r3, [pc, #16]	; (100002e0 <deregister_tm_clones+0x1c>)
100002d0:	2b00      	cmp	r3, #0
100002d2:	d000      	beq.n	100002d6 <deregister_tm_clones+0x12>
100002d4:	4798      	blx	r3
100002d6:	bd10      	pop	{r4, pc}
100002d8:	200019e8 	.word	0x200019e8
100002dc:	200019e8 	.word	0x200019e8
100002e0:	00000000 	.word	0x00000000

100002e4 <register_tm_clones>:
100002e4:	4806      	ldr	r0, [pc, #24]	; (10000300 <register_tm_clones+0x1c>)
100002e6:	4907      	ldr	r1, [pc, #28]	; (10000304 <register_tm_clones+0x20>)
100002e8:	1a09      	subs	r1, r1, r0
100002ea:	108b      	asrs	r3, r1, #2
100002ec:	0fc9      	lsrs	r1, r1, #31
100002ee:	18c9      	adds	r1, r1, r3
100002f0:	b510      	push	{r4, lr}
100002f2:	1049      	asrs	r1, r1, #1
100002f4:	d003      	beq.n	100002fe <register_tm_clones+0x1a>
100002f6:	4b04      	ldr	r3, [pc, #16]	; (10000308 <register_tm_clones+0x24>)
100002f8:	2b00      	cmp	r3, #0
100002fa:	d000      	beq.n	100002fe <register_tm_clones+0x1a>
100002fc:	4798      	blx	r3
100002fe:	bd10      	pop	{r4, pc}
10000300:	200019e8 	.word	0x200019e8
10000304:	200019e8 	.word	0x200019e8
10000308:	00000000 	.word	0x00000000

1000030c <__do_global_dtors_aux>:
1000030c:	b510      	push	{r4, lr}
1000030e:	4c07      	ldr	r4, [pc, #28]	; (1000032c <__do_global_dtors_aux+0x20>)
10000310:	7823      	ldrb	r3, [r4, #0]
10000312:	2b00      	cmp	r3, #0
10000314:	d109      	bne.n	1000032a <__do_global_dtors_aux+0x1e>
10000316:	f7ff ffd5 	bl	100002c4 <deregister_tm_clones>
1000031a:	4b05      	ldr	r3, [pc, #20]	; (10000330 <__do_global_dtors_aux+0x24>)
1000031c:	2b00      	cmp	r3, #0
1000031e:	d002      	beq.n	10000326 <__do_global_dtors_aux+0x1a>
10000320:	4804      	ldr	r0, [pc, #16]	; (10000334 <__do_global_dtors_aux+0x28>)
10000322:	e000      	b.n	10000326 <__do_global_dtors_aux+0x1a>
10000324:	bf00      	nop
10000326:	2301      	movs	r3, #1
10000328:	7023      	strb	r3, [r4, #0]
1000032a:	bd10      	pop	{r4, pc}
1000032c:	20001ae8 	.word	0x20001ae8
10000330:	00000000 	.word	0x00000000
10000334:	10004200 	.word	0x10004200

10000338 <frame_dummy>:
10000338:	4b05      	ldr	r3, [pc, #20]	; (10000350 <frame_dummy+0x18>)
1000033a:	b510      	push	{r4, lr}
1000033c:	2b00      	cmp	r3, #0
1000033e:	d003      	beq.n	10000348 <frame_dummy+0x10>
10000340:	4904      	ldr	r1, [pc, #16]	; (10000354 <frame_dummy+0x1c>)
10000342:	4805      	ldr	r0, [pc, #20]	; (10000358 <frame_dummy+0x20>)
10000344:	e000      	b.n	10000348 <frame_dummy+0x10>
10000346:	bf00      	nop
10000348:	f7ff ffcc 	bl	100002e4 <register_tm_clones>
1000034c:	bd10      	pop	{r4, pc}
1000034e:	46c0      	nop			; (mov r8, r8)
10000350:	00000000 	.word	0x00000000
10000354:	20001aec 	.word	0x20001aec
10000358:	10004200 	.word	0x10004200

1000035c <main>:
1000035c:	b570      	push	{r4, r5, r6, lr}
1000035e:	2019      	movs	r0, #25
10000360:	b08a      	sub	sp, #40	; 0x28
10000362:	f000 f877 	bl	10000454 <gpio_init>
10000366:	23d0      	movs	r3, #208	; 0xd0
10000368:	2280      	movs	r2, #128	; 0x80
1000036a:	ac04      	add	r4, sp, #16
1000036c:	061b      	lsls	r3, r3, #24
1000036e:	0492      	lsls	r2, r2, #18
10000370:	625a      	str	r2, [r3, #36]	; 0x24
10000372:	0022      	movs	r2, r4
10000374:	4b28      	ldr	r3, [pc, #160]	; (10000418 <main+0xbc>)
10000376:	cb23      	ldmia	r3!, {r0, r1, r5}
10000378:	c223      	stmia	r2!, {r0, r1, r5}
1000037a:	681b      	ldr	r3, [r3, #0]
1000037c:	2010      	movs	r0, #16
1000037e:	6013      	str	r3, [r2, #0]
10000380:	f001 fc9a 	bl	10001cb8 <_Znwj>
10000384:	0021      	movs	r1, r4
10000386:	2210      	movs	r2, #16
10000388:	0005      	movs	r5, r0
1000038a:	f001 fc8f 	bl	10001cac <__wrap___aeabi_memcpy>
1000038e:	2200      	movs	r2, #0
10000390:	2300      	movs	r3, #0
10000392:	9200      	str	r2, [sp, #0]
10000394:	9301      	str	r3, [sp, #4]
10000396:	2300      	movs	r3, #0
10000398:	2010      	movs	r0, #16
1000039a:	9302      	str	r3, [sp, #8]
1000039c:	f001 fc8c 	bl	10001cb8 <_Znwj>
100003a0:	0006      	movs	r6, r0
100003a2:	2210      	movs	r2, #16
100003a4:	0029      	movs	r1, r5
100003a6:	3610      	adds	r6, #16
100003a8:	9000      	str	r0, [sp, #0]
100003aa:	9602      	str	r6, [sp, #8]
100003ac:	f001 fc7e 	bl	10001cac <__wrap___aeabi_memcpy>
100003b0:	4669      	mov	r1, sp
100003b2:	0020      	movs	r0, r4
100003b4:	9601      	str	r6, [sp, #4]
100003b6:	f001 fdcd 	bl	10001f54 <_ZN8ROB14450C1ESt6vectorIiSaIiEE>
100003ba:	9800      	ldr	r0, [sp, #0]
100003bc:	2800      	cmp	r0, #0
100003be:	d001      	beq.n	100003c4 <main+0x68>
100003c0:	f001 fc7e 	bl	10001cc0 <_ZdlPv>
100003c4:	0020      	movs	r0, r4
100003c6:	26d0      	movs	r6, #208	; 0xd0
100003c8:	2580      	movs	r5, #128	; 0x80
100003ca:	f001 fe1f 	bl	1000200c <_ZN8ROB144504initEv>
100003ce:	0636      	lsls	r6, r6, #24
100003d0:	04ad      	lsls	r5, r5, #18
100003d2:	4912      	ldr	r1, [pc, #72]	; (1000041c <main+0xc0>)
100003d4:	0020      	movs	r0, r4
100003d6:	f001 fe35 	bl	10002044 <_ZN8ROB144505driveEi>
100003da:	20fa      	movs	r0, #250	; 0xfa
100003dc:	6175      	str	r5, [r6, #20]
100003de:	0080      	lsls	r0, r0, #2
100003e0:	f000 fb52 	bl	10000a88 <sleep_ms>
100003e4:	0020      	movs	r0, r4
100003e6:	f001 fe65 	bl	100020b4 <_ZN8ROB144504stopEv>
100003ea:	20fa      	movs	r0, #250	; 0xfa
100003ec:	61b5      	str	r5, [r6, #24]
100003ee:	0040      	lsls	r0, r0, #1
100003f0:	f000 fb4a 	bl	10000a88 <sleep_ms>
100003f4:	490a      	ldr	r1, [pc, #40]	; (10000420 <main+0xc4>)
100003f6:	0020      	movs	r0, r4
100003f8:	f001 fe24 	bl	10002044 <_ZN8ROB144505driveEi>
100003fc:	20fa      	movs	r0, #250	; 0xfa
100003fe:	6175      	str	r5, [r6, #20]
10000400:	0080      	lsls	r0, r0, #2
10000402:	f000 fb41 	bl	10000a88 <sleep_ms>
10000406:	0020      	movs	r0, r4
10000408:	f001 fe54 	bl	100020b4 <_ZN8ROB144504stopEv>
1000040c:	20fa      	movs	r0, #250	; 0xfa
1000040e:	61b5      	str	r5, [r6, #24]
10000410:	0040      	lsls	r0, r0, #1
10000412:	f000 fb39 	bl	10000a88 <sleep_ms>
10000416:	e7dc      	b.n	100003d2 <main+0x76>
10000418:	10004200 	.word	0x10004200
1000041c:	0000186a 	.word	0x0000186a
10000420:	ffffe796 	.word	0xffffe796

10000424 <gpio_set_function>:
10000424:	4a09      	ldr	r2, [pc, #36]	; (1000044c <gpio_set_function+0x28>)
10000426:	0083      	lsls	r3, r0, #2
10000428:	4694      	mov	ip, r2
1000042a:	2240      	movs	r2, #64	; 0x40
1000042c:	4463      	add	r3, ip
1000042e:	b510      	push	{r4, lr}
10000430:	681c      	ldr	r4, [r3, #0]
10000432:	00c0      	lsls	r0, r0, #3
10000434:	4062      	eors	r2, r4
10000436:	24c0      	movs	r4, #192	; 0xc0
10000438:	4014      	ands	r4, r2
1000043a:	2280      	movs	r2, #128	; 0x80
1000043c:	0152      	lsls	r2, r2, #5
1000043e:	4313      	orrs	r3, r2
10000440:	601c      	str	r4, [r3, #0]
10000442:	4b03      	ldr	r3, [pc, #12]	; (10000450 <gpio_set_function+0x2c>)
10000444:	469c      	mov	ip, r3
10000446:	4460      	add	r0, ip
10000448:	6041      	str	r1, [r0, #4]
1000044a:	bd10      	pop	{r4, pc}
1000044c:	4001c004 	.word	0x4001c004
10000450:	40014000 	.word	0x40014000

10000454 <gpio_init>:
10000454:	2301      	movs	r3, #1
10000456:	22d0      	movs	r2, #208	; 0xd0
10000458:	4083      	lsls	r3, r0
1000045a:	0612      	lsls	r2, r2, #24
1000045c:	6293      	str	r3, [r2, #40]	; 0x28
1000045e:	6193      	str	r3, [r2, #24]
10000460:	4a09      	ldr	r2, [pc, #36]	; (10000488 <gpio_init+0x34>)
10000462:	0083      	lsls	r3, r0, #2
10000464:	4694      	mov	ip, r2
10000466:	2240      	movs	r2, #64	; 0x40
10000468:	4463      	add	r3, ip
1000046a:	6819      	ldr	r1, [r3, #0]
1000046c:	00c0      	lsls	r0, r0, #3
1000046e:	404a      	eors	r2, r1
10000470:	21c0      	movs	r1, #192	; 0xc0
10000472:	4011      	ands	r1, r2
10000474:	2280      	movs	r2, #128	; 0x80
10000476:	0152      	lsls	r2, r2, #5
10000478:	4313      	orrs	r3, r2
1000047a:	6019      	str	r1, [r3, #0]
1000047c:	4b03      	ldr	r3, [pc, #12]	; (1000048c <gpio_init+0x38>)
1000047e:	469c      	mov	ip, r3
10000480:	2305      	movs	r3, #5
10000482:	4460      	add	r0, ip
10000484:	6043      	str	r3, [r0, #4]
10000486:	4770      	bx	lr
10000488:	4001c004 	.word	0x4001c004
1000048c:	40014000 	.word	0x40014000

10000490 <hw_claim_or_assert>:
10000490:	b5f8      	push	{r3, r4, r5, r6, r7, lr}
10000492:	f3ef 8710 	mrs	r7, PRIMASK
10000496:	b672      	cpsid	i
10000498:	4e0e      	ldr	r6, [pc, #56]	; (100004d4 <hw_claim_or_assert+0x44>)
1000049a:	6833      	ldr	r3, [r6, #0]
1000049c:	2b00      	cmp	r3, #0
1000049e:	d0fc      	beq.n	1000049a <hw_claim_or_assert+0xa>
100004a0:	f3bf 8f5f 	dmb	sy
100004a4:	08cb      	lsrs	r3, r1, #3
100004a6:	18c4      	adds	r4, r0, r3
100004a8:	2507      	movs	r5, #7
100004aa:	46a4      	mov	ip, r4
100004ac:	5cc4      	ldrb	r4, [r0, r3]
100004ae:	2301      	movs	r3, #1
100004b0:	400d      	ands	r5, r1
100004b2:	40ab      	lsls	r3, r5
100004b4:	0018      	movs	r0, r3
100004b6:	4020      	ands	r0, r4
100004b8:	4223      	tst	r3, r4
100004ba:	d108      	bne.n	100004ce <hw_claim_or_assert+0x3e>
100004bc:	4662      	mov	r2, ip
100004be:	4323      	orrs	r3, r4
100004c0:	7013      	strb	r3, [r2, #0]
100004c2:	f3bf 8f5f 	dmb	sy
100004c6:	6030      	str	r0, [r6, #0]
100004c8:	f387 8810 	msr	PRIMASK, r7
100004cc:	bdf8      	pop	{r3, r4, r5, r6, r7, pc}
100004ce:	0010      	movs	r0, r2
100004d0:	f000 fefc 	bl	100012cc <panic>
100004d4:	d000012c 	.word	0xd000012c

100004d8 <running_on_fpga>:
100004d8:	4b02      	ldr	r3, [pc, #8]	; (100004e4 <running_on_fpga+0xc>)
100004da:	6818      	ldr	r0, [r3, #0]
100004dc:	0780      	lsls	r0, r0, #30
100004de:	0fc0      	lsrs	r0, r0, #31
100004e0:	4770      	bx	lr
100004e2:	46c0      	nop			; (mov r8, r8)
100004e4:	4006c000 	.word	0x4006c000

100004e8 <spin_locks_reset>:
100004e8:	2100      	movs	r1, #0
100004ea:	4b04      	ldr	r3, [pc, #16]	; (100004fc <spin_locks_reset+0x14>)
100004ec:	4a04      	ldr	r2, [pc, #16]	; (10000500 <spin_locks_reset+0x18>)
100004ee:	f3bf 8f5f 	dmb	sy
100004f2:	c302      	stmia	r3!, {r1}
100004f4:	4293      	cmp	r3, r2
100004f6:	d1fa      	bne.n	100004ee <spin_locks_reset+0x6>
100004f8:	4770      	bx	lr
100004fa:	46c0      	nop			; (mov r8, r8)
100004fc:	d0000100 	.word	0xd0000100
10000500:	d0000180 	.word	0xd0000180

10000504 <next_striped_spin_lock_num>:
10000504:	4a04      	ldr	r2, [pc, #16]	; (10000518 <next_striped_spin_lock_num+0x14>)
10000506:	7810      	ldrb	r0, [r2, #0]
10000508:	1c43      	adds	r3, r0, #1
1000050a:	b2db      	uxtb	r3, r3
1000050c:	2b17      	cmp	r3, #23
1000050e:	d900      	bls.n	10000512 <next_striped_spin_lock_num+0xe>
10000510:	2310      	movs	r3, #16
10000512:	7013      	strb	r3, [r2, #0]
10000514:	4770      	bx	lr
10000516:	46c0      	nop			; (mov r8, r8)
10000518:	200010e0 	.word	0x200010e0

1000051c <timer_pool_entry_comparator>:
1000051c:	6883      	ldr	r3, [r0, #8]
1000051e:	480b      	ldr	r0, [pc, #44]	; (1000054c <timer_pool_entry_comparator+0x30>)
10000520:	b510      	push	{r4, lr}
10000522:	4684      	mov	ip, r0
10000524:	4461      	add	r1, ip
10000526:	4462      	add	r2, ip
10000528:	0109      	lsls	r1, r1, #4
1000052a:	0112      	lsls	r2, r2, #4
1000052c:	189a      	adds	r2, r3, r2
1000052e:	1859      	adds	r1, r3, r1
10000530:	6854      	ldr	r4, [r2, #4]
10000532:	684b      	ldr	r3, [r1, #4]
10000534:	2001      	movs	r0, #1
10000536:	429c      	cmp	r4, r3
10000538:	d801      	bhi.n	1000053e <timer_pool_entry_comparator+0x22>
1000053a:	d002      	beq.n	10000542 <timer_pool_entry_comparator+0x26>
1000053c:	2000      	movs	r0, #0
1000053e:	b2c0      	uxtb	r0, r0
10000540:	bd10      	pop	{r4, pc}
10000542:	6812      	ldr	r2, [r2, #0]
10000544:	680b      	ldr	r3, [r1, #0]
10000546:	429a      	cmp	r2, r3
10000548:	d8f9      	bhi.n	1000053e <timer_pool_entry_comparator+0x22>
1000054a:	e7f7      	b.n	1000053c <timer_pool_entry_comparator+0x20>
1000054c:	0fffffff 	.word	0x0fffffff

10000550 <sleep_until_callback>:
10000550:	4b0a      	ldr	r3, [pc, #40]	; (1000057c <sleep_until_callback+0x2c>)
10000552:	6819      	ldr	r1, [r3, #0]
10000554:	f3ef 8010 	mrs	r0, PRIMASK
10000558:	b672      	cpsid	i
1000055a:	680a      	ldr	r2, [r1, #0]
1000055c:	2a00      	cmp	r2, #0
1000055e:	d0fc      	beq.n	1000055a <sleep_until_callback+0xa>
10000560:	f3bf 8f5f 	dmb	sy
10000564:	681b      	ldr	r3, [r3, #0]
10000566:	f3bf 8f5f 	dmb	sy
1000056a:	2200      	movs	r2, #0
1000056c:	601a      	str	r2, [r3, #0]
1000056e:	f380 8810 	msr	PRIMASK, r0
10000572:	bf40      	sev
10000574:	2000      	movs	r0, #0
10000576:	2100      	movs	r1, #0
10000578:	4770      	bx	lr
1000057a:	46c0      	nop			; (mov r8, r8)
1000057c:	20001c00 	.word	0x20001c00

10000580 <alarm_pool_add_alarm_at.constprop.0>:
10000580:	b5f8      	push	{r3, r4, r5, r6, r7, lr}
10000582:	4657      	mov	r7, sl
10000584:	464e      	mov	r6, r9
10000586:	4645      	mov	r5, r8
10000588:	46de      	mov	lr, fp
1000058a:	b5e0      	push	{r5, r6, r7, lr}
1000058c:	4d43      	ldr	r5, [pc, #268]	; (1000069c <alarm_pool_add_alarm_at.constprop.0+0x11c>)
1000058e:	4681      	mov	r9, r0
10000590:	468a      	mov	sl, r1
10000592:	686a      	ldr	r2, [r5, #4]
10000594:	f3ef 8810 	mrs	r8, PRIMASK
10000598:	b672      	cpsid	i
1000059a:	6813      	ldr	r3, [r2, #0]
1000059c:	2b00      	cmp	r3, #0
1000059e:	d0fc      	beq.n	1000059a <alarm_pool_add_alarm_at.constprop.0+0x1a>
100005a0:	f3bf 8f5f 	dmb	sy
100005a4:	682e      	ldr	r6, [r5, #0]
100005a6:	7bb4      	ldrb	r4, [r6, #14]
100005a8:	2c00      	cmp	r4, #0
100005aa:	d03e      	beq.n	1000062a <alarm_pool_add_alarm_at.constprop.0+0xaa>
100005ac:	0067      	lsls	r7, r4, #1
100005ae:	6833      	ldr	r3, [r6, #0]
100005b0:	193f      	adds	r7, r7, r4
100005b2:	3f03      	subs	r7, #3
100005b4:	19da      	adds	r2, r3, r7
100005b6:	7853      	ldrb	r3, [r2, #1]
100005b8:	73b3      	strb	r3, [r6, #14]
100005ba:	2b00      	cmp	r3, #0
100005bc:	d100      	bne.n	100005c0 <alarm_pool_add_alarm_at.constprop.0+0x40>
100005be:	73f3      	strb	r3, [r6, #15]
100005c0:	2300      	movs	r3, #0
100005c2:	7093      	strb	r3, [r2, #2]
100005c4:	7053      	strb	r3, [r2, #1]
100005c6:	7013      	strb	r3, [r2, #0]
100005c8:	68a9      	ldr	r1, [r5, #8]
100005ca:	4a35      	ldr	r2, [pc, #212]	; (100006a0 <alarm_pool_add_alarm_at.constprop.0+0x120>)
100005cc:	468c      	mov	ip, r1
100005ce:	4649      	mov	r1, r9
100005d0:	18a2      	adds	r2, r4, r2
100005d2:	0112      	lsls	r2, r2, #4
100005d4:	4462      	add	r2, ip
100005d6:	6011      	str	r1, [r2, #0]
100005d8:	4651      	mov	r1, sl
100005da:	6051      	str	r1, [r2, #4]
100005dc:	4931      	ldr	r1, [pc, #196]	; (100006a4 <alarm_pool_add_alarm_at.constprop.0+0x124>)
100005de:	60d3      	str	r3, [r2, #12]
100005e0:	6091      	str	r1, [r2, #8]
100005e2:	6832      	ldr	r2, [r6, #0]
100005e4:	19d2      	adds	r2, r2, r7
100005e6:	7093      	strb	r3, [r2, #2]
100005e8:	7053      	strb	r3, [r2, #1]
100005ea:	7013      	strb	r3, [r2, #0]
100005ec:	7b73      	ldrb	r3, [r6, #13]
100005ee:	469b      	mov	fp, r3
100005f0:	2b00      	cmp	r3, #0
100005f2:	d035      	beq.n	10000660 <alarm_pool_add_alarm_at.constprop.0+0xe0>
100005f4:	0022      	movs	r2, r4
100005f6:	0019      	movs	r1, r3
100005f8:	68b0      	ldr	r0, [r6, #8]
100005fa:	6873      	ldr	r3, [r6, #4]
100005fc:	4798      	blx	r3
100005fe:	6832      	ldr	r2, [r6, #0]
10000600:	2800      	cmp	r0, #0
10000602:	d020      	beq.n	10000646 <alarm_pool_add_alarm_at.constprop.0+0xc6>
10000604:	465b      	mov	r3, fp
10000606:	4658      	mov	r0, fp
10000608:	005b      	lsls	r3, r3, #1
1000060a:	445b      	add	r3, fp
1000060c:	19d7      	adds	r7, r2, r7
1000060e:	3b03      	subs	r3, #3
10000610:	70b8      	strb	r0, [r7, #2]
10000612:	18d1      	adds	r1, r2, r3
10000614:	5cd3      	ldrb	r3, [r2, r3]
10000616:	2b00      	cmp	r3, #0
10000618:	d000      	beq.n	1000061c <alarm_pool_add_alarm_at.constprop.0+0x9c>
1000061a:	707b      	strb	r3, [r7, #1]
1000061c:	465b      	mov	r3, fp
1000061e:	700c      	strb	r4, [r1, #0]
10000620:	7373      	strb	r3, [r6, #13]
10000622:	455c      	cmp	r4, fp
10000624:	d01d      	beq.n	10000662 <alarm_pool_add_alarm_at.constprop.0+0xe2>
10000626:	2600      	movs	r6, #0
10000628:	e026      	b.n	10000678 <alarm_pool_add_alarm_at.constprop.0+0xf8>
1000062a:	686b      	ldr	r3, [r5, #4]
1000062c:	f3bf 8f5f 	dmb	sy
10000630:	601c      	str	r4, [r3, #0]
10000632:	f388 8810 	msr	PRIMASK, r8
10000636:	2001      	movs	r0, #1
10000638:	4240      	negs	r0, r0
1000063a:	bc3c      	pop	{r2, r3, r4, r5}
1000063c:	4690      	mov	r8, r2
1000063e:	4699      	mov	r9, r3
10000640:	46a2      	mov	sl, r4
10000642:	46ab      	mov	fp, r5
10000644:	bdf8      	pop	{r3, r4, r5, r6, r7, pc}
10000646:	465b      	mov	r3, fp
10000648:	005b      	lsls	r3, r3, #1
1000064a:	445b      	add	r3, fp
1000064c:	3b03      	subs	r3, #3
1000064e:	18d3      	adds	r3, r2, r3
10000650:	709c      	strb	r4, [r3, #2]
10000652:	19d1      	adds	r1, r2, r7
10000654:	5dd2      	ldrb	r2, [r2, r7]
10000656:	2a00      	cmp	r2, #0
10000658:	d000      	beq.n	1000065c <alarm_pool_add_alarm_at.constprop.0+0xdc>
1000065a:	705a      	strb	r2, [r3, #1]
1000065c:	465b      	mov	r3, fp
1000065e:	700b      	strb	r3, [r1, #0]
10000660:	7374      	strb	r4, [r6, #13]
10000662:	464a      	mov	r2, r9
10000664:	4653      	mov	r3, sl
10000666:	7d28      	ldrb	r0, [r5, #20]
10000668:	f000 faf2 	bl	10000c50 <hardware_alarm_set_target>
1000066c:	1e06      	subs	r6, r0, #0
1000066e:	d0da      	beq.n	10000626 <alarm_pool_add_alarm_at.constprop.0+0xa6>
10000670:	0021      	movs	r1, r4
10000672:	6828      	ldr	r0, [r5, #0]
10000674:	f000 fd56 	bl	10001124 <ph_remove_and_free_node>
10000678:	68eb      	ldr	r3, [r5, #12]
1000067a:	686a      	ldr	r2, [r5, #4]
1000067c:	191b      	adds	r3, r3, r4
1000067e:	3b01      	subs	r3, #1
10000680:	781b      	ldrb	r3, [r3, #0]
10000682:	f3bf 8f5f 	dmb	sy
10000686:	2100      	movs	r1, #0
10000688:	6011      	str	r1, [r2, #0]
1000068a:	f388 8810 	msr	PRIMASK, r8
1000068e:	2000      	movs	r0, #0
10000690:	2e00      	cmp	r6, #0
10000692:	d1d2      	bne.n	1000063a <alarm_pool_add_alarm_at.constprop.0+0xba>
10000694:	0218      	lsls	r0, r3, #8
10000696:	4320      	orrs	r0, r4
10000698:	e7cf      	b.n	1000063a <alarm_pool_add_alarm_at.constprop.0+0xba>
1000069a:	46c0      	nop			; (mov r8, r8)
1000069c:	200010e4 	.word	0x200010e4
100006a0:	0fffffff 	.word	0x0fffffff
100006a4:	10000551 	.word	0x10000551

100006a8 <add_alarm_under_lock>:
100006a8:	b5f8      	push	{r3, r4, r5, r6, r7, lr}
100006aa:	4657      	mov	r7, sl
100006ac:	4645      	mov	r5, r8
100006ae:	464e      	mov	r6, r9
100006b0:	46de      	mov	lr, fp
100006b2:	b5e0      	push	{r5, r6, r7, lr}
100006b4:	4699      	mov	r9, r3
100006b6:	ab0c      	add	r3, sp, #48	; 0x30
100006b8:	7819      	ldrb	r1, [r3, #0]
100006ba:	ab0d      	add	r3, sp, #52	; 0x34
100006bc:	781b      	ldrb	r3, [r3, #0]
100006be:	0005      	movs	r5, r0
100006c0:	4690      	mov	r8, r2
100006c2:	469a      	mov	sl, r3
100006c4:	6807      	ldr	r7, [r0, #0]
100006c6:	2900      	cmp	r1, #0
100006c8:	d112      	bne.n	100006f0 <add_alarm_under_lock+0x48>
100006ca:	7bbe      	ldrb	r6, [r7, #14]
100006cc:	2e00      	cmp	r6, #0
100006ce:	d045      	beq.n	1000075c <add_alarm_under_lock+0xb4>
100006d0:	0074      	lsls	r4, r6, #1
100006d2:	683b      	ldr	r3, [r7, #0]
100006d4:	19a4      	adds	r4, r4, r6
100006d6:	3c03      	subs	r4, #3
100006d8:	191b      	adds	r3, r3, r4
100006da:	785a      	ldrb	r2, [r3, #1]
100006dc:	0031      	movs	r1, r6
100006de:	73ba      	strb	r2, [r7, #14]
100006e0:	2a00      	cmp	r2, #0
100006e2:	d100      	bne.n	100006e6 <add_alarm_under_lock+0x3e>
100006e4:	73fa      	strb	r2, [r7, #15]
100006e6:	2200      	movs	r2, #0
100006e8:	709a      	strb	r2, [r3, #2]
100006ea:	705a      	strb	r2, [r3, #1]
100006ec:	701a      	strb	r2, [r3, #0]
100006ee:	e003      	b.n	100006f8 <add_alarm_under_lock+0x50>
100006f0:	000e      	movs	r6, r1
100006f2:	004c      	lsls	r4, r1, #1
100006f4:	1864      	adds	r4, r4, r1
100006f6:	3c03      	subs	r4, #3
100006f8:	4b2c      	ldr	r3, [pc, #176]	; (100007ac <add_alarm_under_lock+0x104>)
100006fa:	2200      	movs	r2, #0
100006fc:	469c      	mov	ip, r3
100006fe:	68ab      	ldr	r3, [r5, #8]
10000700:	4461      	add	r1, ip
10000702:	469c      	mov	ip, r3
10000704:	4643      	mov	r3, r8
10000706:	0109      	lsls	r1, r1, #4
10000708:	4461      	add	r1, ip
1000070a:	600b      	str	r3, [r1, #0]
1000070c:	464b      	mov	r3, r9
1000070e:	604b      	str	r3, [r1, #4]
10000710:	9b0a      	ldr	r3, [sp, #40]	; 0x28
10000712:	608b      	str	r3, [r1, #8]
10000714:	9b0b      	ldr	r3, [sp, #44]	; 0x2c
10000716:	60cb      	str	r3, [r1, #12]
10000718:	683b      	ldr	r3, [r7, #0]
1000071a:	191b      	adds	r3, r3, r4
1000071c:	709a      	strb	r2, [r3, #2]
1000071e:	705a      	strb	r2, [r3, #1]
10000720:	701a      	strb	r2, [r3, #0]
10000722:	7b7b      	ldrb	r3, [r7, #13]
10000724:	469b      	mov	fp, r3
10000726:	2b00      	cmp	r3, #0
10000728:	d02c      	beq.n	10000784 <add_alarm_under_lock+0xdc>
1000072a:	0032      	movs	r2, r6
1000072c:	4659      	mov	r1, fp
1000072e:	68b8      	ldr	r0, [r7, #8]
10000730:	687b      	ldr	r3, [r7, #4]
10000732:	4798      	blx	r3
10000734:	683a      	ldr	r2, [r7, #0]
10000736:	2800      	cmp	r0, #0
10000738:	d017      	beq.n	1000076a <add_alarm_under_lock+0xc2>
1000073a:	465b      	mov	r3, fp
1000073c:	4658      	mov	r0, fp
1000073e:	005b      	lsls	r3, r3, #1
10000740:	445b      	add	r3, fp
10000742:	1914      	adds	r4, r2, r4
10000744:	3b03      	subs	r3, #3
10000746:	70a0      	strb	r0, [r4, #2]
10000748:	18d1      	adds	r1, r2, r3
1000074a:	5cd3      	ldrb	r3, [r2, r3]
1000074c:	2b00      	cmp	r3, #0
1000074e:	d000      	beq.n	10000752 <add_alarm_under_lock+0xaa>
10000750:	7063      	strb	r3, [r4, #1]
10000752:	465b      	mov	r3, fp
10000754:	700e      	strb	r6, [r1, #0]
10000756:	737b      	strb	r3, [r7, #13]
10000758:	45b3      	cmp	fp, r6
1000075a:	d014      	beq.n	10000786 <add_alarm_under_lock+0xde>
1000075c:	0030      	movs	r0, r6
1000075e:	bc3c      	pop	{r2, r3, r4, r5}
10000760:	4690      	mov	r8, r2
10000762:	4699      	mov	r9, r3
10000764:	46a2      	mov	sl, r4
10000766:	46ab      	mov	fp, r5
10000768:	bdf8      	pop	{r3, r4, r5, r6, r7, pc}
1000076a:	465b      	mov	r3, fp
1000076c:	005b      	lsls	r3, r3, #1
1000076e:	445b      	add	r3, fp
10000770:	3b03      	subs	r3, #3
10000772:	18d3      	adds	r3, r2, r3
10000774:	709e      	strb	r6, [r3, #2]
10000776:	1911      	adds	r1, r2, r4
10000778:	5d12      	ldrb	r2, [r2, r4]
1000077a:	2a00      	cmp	r2, #0
1000077c:	d000      	beq.n	10000780 <add_alarm_under_lock+0xd8>
1000077e:	705a      	strb	r2, [r3, #1]
10000780:	465b      	mov	r3, fp
10000782:	700b      	strb	r3, [r1, #0]
10000784:	737e      	strb	r6, [r7, #13]
10000786:	4642      	mov	r2, r8
10000788:	464b      	mov	r3, r9
1000078a:	7d28      	ldrb	r0, [r5, #20]
1000078c:	f000 fa60 	bl	10000c50 <hardware_alarm_set_target>
10000790:	1e04      	subs	r4, r0, #0
10000792:	d006      	beq.n	100007a2 <add_alarm_under_lock+0xfa>
10000794:	4653      	mov	r3, sl
10000796:	2b00      	cmp	r3, #0
10000798:	d103      	bne.n	100007a2 <add_alarm_under_lock+0xfa>
1000079a:	0031      	movs	r1, r6
1000079c:	6828      	ldr	r0, [r5, #0]
1000079e:	f000 fcc1 	bl	10001124 <ph_remove_and_free_node>
100007a2:	9b0e      	ldr	r3, [sp, #56]	; 0x38
100007a4:	2b00      	cmp	r3, #0
100007a6:	d0d9      	beq.n	1000075c <add_alarm_under_lock+0xb4>
100007a8:	701c      	strb	r4, [r3, #0]
100007aa:	e7d7      	b.n	1000075c <add_alarm_under_lock+0xb4>
100007ac:	0fffffff 	.word	0x0fffffff

100007b0 <alarm_pool_alarm_callback>:
100007b0:	b5f0      	push	{r4, r5, r6, r7, lr}
100007b2:	46de      	mov	lr, fp
100007b4:	464e      	mov	r6, r9
100007b6:	4657      	mov	r7, sl
100007b8:	4645      	mov	r5, r8
100007ba:	2300      	movs	r3, #0
100007bc:	b5e0      	push	{r5, r6, r7, lr}
100007be:	b08d      	sub	sp, #52	; 0x34
100007c0:	930a      	str	r3, [sp, #40]	; 0x28
100007c2:	4b6b      	ldr	r3, [pc, #428]	; (10000970 <alarm_pool_alarm_callback+0x1c0>)
100007c4:	0082      	lsls	r2, r0, #2
100007c6:	58d3      	ldr	r3, [r2, r3]
100007c8:	900b      	str	r0, [sp, #44]	; 0x2c
100007ca:	4699      	mov	r9, r3
100007cc:	2300      	movs	r3, #0
100007ce:	469b      	mov	fp, r3
100007d0:	464b      	mov	r3, r9
100007d2:	9307      	str	r3, [sp, #28]
100007d4:	f000 f9dc 	bl	10000b90 <time_us_64>
100007d8:	9c07      	ldr	r4, [sp, #28]
100007da:	0006      	movs	r6, r0
100007dc:	000f      	movs	r7, r1
100007de:	6862      	ldr	r2, [r4, #4]
100007e0:	f3ef 8510 	mrs	r5, PRIMASK
100007e4:	b672      	cpsid	i
100007e6:	6813      	ldr	r3, [r2, #0]
100007e8:	2b00      	cmp	r3, #0
100007ea:	d0fc      	beq.n	100007e6 <alarm_pool_alarm_callback+0x36>
100007ec:	0022      	movs	r2, r4
100007ee:	9407      	str	r4, [sp, #28]
100007f0:	f3bf 8f5f 	dmb	sy
100007f4:	6824      	ldr	r4, [r4, #0]
100007f6:	7b63      	ldrb	r3, [r4, #13]
100007f8:	4699      	mov	r9, r3
100007fa:	2b00      	cmp	r3, #0
100007fc:	d067      	beq.n	100008ce <alarm_pool_alarm_callback+0x11e>
100007fe:	6892      	ldr	r2, [r2, #8]
10000800:	4b5c      	ldr	r3, [pc, #368]	; (10000974 <alarm_pool_alarm_callback+0x1c4>)
10000802:	4690      	mov	r8, r2
10000804:	444b      	add	r3, r9
10000806:	011b      	lsls	r3, r3, #4
10000808:	4498      	add	r8, r3
1000080a:	4643      	mov	r3, r8
1000080c:	681a      	ldr	r2, [r3, #0]
1000080e:	685b      	ldr	r3, [r3, #4]
10000810:	0010      	movs	r0, r2
10000812:	0019      	movs	r1, r3
10000814:	1b80      	subs	r0, r0, r6
10000816:	41b9      	sbcs	r1, r7
10000818:	2900      	cmp	r1, #0
1000081a:	dd5f      	ble.n	100008dc <alarm_pool_alarm_callback+0x12c>
1000081c:	980b      	ldr	r0, [sp, #44]	; 0x2c
1000081e:	f000 fa17 	bl	10000c50 <hardware_alarm_set_target>
10000822:	2300      	movs	r3, #0
10000824:	2600      	movs	r6, #0
10000826:	4698      	mov	r8, r3
10000828:	2700      	movs	r7, #0
1000082a:	469a      	mov	sl, r3
1000082c:	9c07      	ldr	r4, [sp, #28]
1000082e:	6863      	ldr	r3, [r4, #4]
10000830:	f3bf 8f5f 	dmb	sy
10000834:	465a      	mov	r2, fp
10000836:	601a      	str	r2, [r3, #0]
10000838:	f385 8810 	msr	PRIMASK, r5
1000083c:	4653      	mov	r3, sl
1000083e:	2b00      	cmp	r3, #0
10000840:	d108      	bne.n	10000854 <alarm_pool_alarm_callback+0xa4>
10000842:	2800      	cmp	r0, #0
10000844:	d1c6      	bne.n	100007d4 <alarm_pool_alarm_callback+0x24>
10000846:	b00d      	add	sp, #52	; 0x34
10000848:	bc3c      	pop	{r2, r3, r4, r5}
1000084a:	4690      	mov	r8, r2
1000084c:	4699      	mov	r9, r3
1000084e:	46a2      	mov	sl, r4
10000850:	46ab      	mov	fp, r5
10000852:	bdf0      	pop	{r4, r5, r6, r7, pc}
10000854:	9b0a      	ldr	r3, [sp, #40]	; 0x28
10000856:	4641      	mov	r1, r8
10000858:	0218      	lsls	r0, r3, #8
1000085a:	464b      	mov	r3, r9
1000085c:	4318      	orrs	r0, r3
1000085e:	47d0      	blx	sl
10000860:	9008      	str	r0, [sp, #32]
10000862:	9109      	str	r1, [sp, #36]	; 0x24
10000864:	6862      	ldr	r2, [r4, #4]
10000866:	f3ef 8510 	mrs	r5, PRIMASK
1000086a:	b672      	cpsid	i
1000086c:	6813      	ldr	r3, [r2, #0]
1000086e:	2b00      	cmp	r3, #0
10000870:	d0fc      	beq.n	1000086c <alarm_pool_alarm_callback+0xbc>
10000872:	9407      	str	r4, [sp, #28]
10000874:	f3bf 8f5f 	dmb	sy
10000878:	9908      	ldr	r1, [sp, #32]
1000087a:	9a09      	ldr	r2, [sp, #36]	; 0x24
1000087c:	2a00      	cmp	r2, #0
1000087e:	db48      	blt.n	10000912 <alarm_pool_alarm_callback+0x162>
10000880:	4311      	orrs	r1, r2
10000882:	d003      	beq.n	1000088c <alarm_pool_alarm_callback+0xdc>
10000884:	9b07      	ldr	r3, [sp, #28]
10000886:	691b      	ldr	r3, [r3, #16]
10000888:	2b00      	cmp	r3, #0
1000088a:	d15d      	bne.n	10000948 <alarm_pool_alarm_callback+0x198>
1000088c:	9b07      	ldr	r3, [sp, #28]
1000088e:	681b      	ldr	r3, [r3, #0]
10000890:	7bda      	ldrb	r2, [r3, #15]
10000892:	2a00      	cmp	r2, #0
10000894:	d007      	beq.n	100008a6 <alarm_pool_alarm_callback+0xf6>
10000896:	0051      	lsls	r1, r2, #1
10000898:	188a      	adds	r2, r1, r2
1000089a:	6819      	ldr	r1, [r3, #0]
1000089c:	468c      	mov	ip, r1
1000089e:	4649      	mov	r1, r9
100008a0:	4462      	add	r2, ip
100008a2:	3a03      	subs	r2, #3
100008a4:	7051      	strb	r1, [r2, #1]
100008a6:	464a      	mov	r2, r9
100008a8:	73da      	strb	r2, [r3, #15]
100008aa:	464b      	mov	r3, r9
100008ac:	9a07      	ldr	r2, [sp, #28]
100008ae:	3b01      	subs	r3, #1
100008b0:	68d1      	ldr	r1, [r2, #12]
100008b2:	5cca      	ldrb	r2, [r1, r3]
100008b4:	3201      	adds	r2, #1
100008b6:	54ca      	strb	r2, [r1, r3]
100008b8:	465b      	mov	r3, fp
100008ba:	9a07      	ldr	r2, [sp, #28]
100008bc:	6113      	str	r3, [r2, #16]
100008be:	6853      	ldr	r3, [r2, #4]
100008c0:	f3bf 8f5f 	dmb	sy
100008c4:	465a      	mov	r2, fp
100008c6:	601a      	str	r2, [r3, #0]
100008c8:	f385 8810 	msr	PRIMASK, r5
100008cc:	e782      	b.n	100007d4 <alarm_pool_alarm_callback+0x24>
100008ce:	2300      	movs	r3, #0
100008d0:	2600      	movs	r6, #0
100008d2:	4698      	mov	r8, r3
100008d4:	2700      	movs	r7, #0
100008d6:	469a      	mov	sl, r3
100008d8:	2000      	movs	r0, #0
100008da:	e7a7      	b.n	1000082c <alarm_pool_alarm_callback+0x7c>
100008dc:	2900      	cmp	r1, #0
100008de:	d101      	bne.n	100008e4 <alarm_pool_alarm_callback+0x134>
100008e0:	2800      	cmp	r0, #0
100008e2:	d19b      	bne.n	1000081c <alarm_pool_alarm_callback+0x6c>
100008e4:	2100      	movs	r1, #0
100008e6:	0020      	movs	r0, r4
100008e8:	f000 fb7e 	bl	10000fe8 <ph_remove_head>
100008ec:	4643      	mov	r3, r8
100008ee:	681e      	ldr	r6, [r3, #0]
100008f0:	685f      	ldr	r7, [r3, #4]
100008f2:	689b      	ldr	r3, [r3, #8]
100008f4:	9a07      	ldr	r2, [sp, #28]
100008f6:	469a      	mov	sl, r3
100008f8:	4643      	mov	r3, r8
100008fa:	68db      	ldr	r3, [r3, #12]
100008fc:	4698      	mov	r8, r3
100008fe:	68d3      	ldr	r3, [r2, #12]
10000900:	444b      	add	r3, r9
10000902:	3b01      	subs	r3, #1
10000904:	781b      	ldrb	r3, [r3, #0]
10000906:	930a      	str	r3, [sp, #40]	; 0x28
10000908:	021b      	lsls	r3, r3, #8
1000090a:	4303      	orrs	r3, r0
1000090c:	6113      	str	r3, [r2, #16]
1000090e:	2000      	movs	r0, #0
10000910:	e78c      	b.n	1000082c <alarm_pool_alarm_callback+0x7c>
10000912:	6923      	ldr	r3, [r4, #16]
10000914:	2b00      	cmp	r3, #0
10000916:	d0b9      	beq.n	1000088c <alarm_pool_alarm_callback+0xdc>
10000918:	0033      	movs	r3, r6
1000091a:	003c      	movs	r4, r7
1000091c:	1a5b      	subs	r3, r3, r1
1000091e:	4194      	sbcs	r4, r2
10000920:	001a      	movs	r2, r3
10000922:	0023      	movs	r3, r4
10000924:	42a7      	cmp	r7, r4
10000926:	d819      	bhi.n	1000095c <alarm_pool_alarm_callback+0x1ac>
10000928:	429f      	cmp	r7, r3
1000092a:	d01b      	beq.n	10000964 <alarm_pool_alarm_callback+0x1b4>
1000092c:	4659      	mov	r1, fp
1000092e:	9104      	str	r1, [sp, #16]
10000930:	2101      	movs	r1, #1
10000932:	9103      	str	r1, [sp, #12]
10000934:	4649      	mov	r1, r9
10000936:	9102      	str	r1, [sp, #8]
10000938:	4641      	mov	r1, r8
1000093a:	9101      	str	r1, [sp, #4]
1000093c:	4651      	mov	r1, sl
1000093e:	9807      	ldr	r0, [sp, #28]
10000940:	9100      	str	r1, [sp, #0]
10000942:	f7ff feb1 	bl	100006a8 <add_alarm_under_lock>
10000946:	e7b7      	b.n	100008b8 <alarm_pool_alarm_callback+0x108>
10000948:	f000 f922 	bl	10000b90 <time_us_64>
1000094c:	9a08      	ldr	r2, [sp, #32]
1000094e:	9b09      	ldr	r3, [sp, #36]	; 0x24
10000950:	0006      	movs	r6, r0
10000952:	000f      	movs	r7, r1
10000954:	1992      	adds	r2, r2, r6
10000956:	417b      	adcs	r3, r7
10000958:	4299      	cmp	r1, r3
1000095a:	d9e5      	bls.n	10000928 <alarm_pool_alarm_callback+0x178>
1000095c:	2201      	movs	r2, #1
1000095e:	4252      	negs	r2, r2
10000960:	17d3      	asrs	r3, r2, #31
10000962:	e7e3      	b.n	1000092c <alarm_pool_alarm_callback+0x17c>
10000964:	4296      	cmp	r6, r2
10000966:	d9e1      	bls.n	1000092c <alarm_pool_alarm_callback+0x17c>
10000968:	2201      	movs	r2, #1
1000096a:	4252      	negs	r2, r2
1000096c:	17d3      	asrs	r3, r2, #31
1000096e:	e7dd      	b.n	1000092c <alarm_pool_alarm_callback+0x17c>
10000970:	20001bec 	.word	0x20001bec
10000974:	0fffffff 	.word	0x0fffffff

10000978 <alarm_pool_init_default>:
10000978:	b510      	push	{r4, lr}
1000097a:	4c12      	ldr	r4, [pc, #72]	; (100009c4 <alarm_pool_init_default+0x4c>)
1000097c:	6863      	ldr	r3, [r4, #4]
1000097e:	2b00      	cmp	r3, #0
10000980:	d004      	beq.n	1000098c <alarm_pool_init_default+0x14>
10000982:	210a      	movs	r1, #10
10000984:	4810      	ldr	r0, [pc, #64]	; (100009c8 <alarm_pool_init_default+0x50>)
10000986:	f000 f9f5 	bl	10000d74 <lock_init>
1000098a:	bd10      	pop	{r4, pc}
1000098c:	0023      	movs	r3, r4
1000098e:	4a0f      	ldr	r2, [pc, #60]	; (100009cc <alarm_pool_init_default+0x54>)
10000990:	2110      	movs	r1, #16
10000992:	6820      	ldr	r0, [r4, #0]
10000994:	f000 fa46 	bl	10000e24 <ph_post_alloc_init>
10000998:	2003      	movs	r0, #3
1000099a:	f000 f8ed 	bl	10000b78 <hardware_alarm_claim>
1000099e:	2003      	movs	r0, #3
100009a0:	f000 f9c8 	bl	10000d34 <hardware_alarm_cancel>
100009a4:	2003      	movs	r0, #3
100009a6:	490a      	ldr	r1, [pc, #40]	; (100009d0 <alarm_pool_init_default+0x58>)
100009a8:	f000 f90c 	bl	10000bc4 <hardware_alarm_set_callback>
100009ac:	f7ff fdaa 	bl	10000504 <next_striped_spin_lock_num>
100009b0:	4b08      	ldr	r3, [pc, #32]	; (100009d4 <alarm_pool_init_default+0x5c>)
100009b2:	469c      	mov	ip, r3
100009b4:	2303      	movs	r3, #3
100009b6:	4460      	add	r0, ip
100009b8:	7523      	strb	r3, [r4, #20]
100009ba:	4b07      	ldr	r3, [pc, #28]	; (100009d8 <alarm_pool_init_default+0x60>)
100009bc:	0080      	lsls	r0, r0, #2
100009be:	6060      	str	r0, [r4, #4]
100009c0:	60dc      	str	r4, [r3, #12]
100009c2:	e7de      	b.n	10000982 <alarm_pool_init_default+0xa>
100009c4:	200010e4 	.word	0x200010e4
100009c8:	20001c00 	.word	0x20001c00
100009cc:	1000051d 	.word	0x1000051d
100009d0:	100007b1 	.word	0x100007b1
100009d4:	34000040 	.word	0x34000040
100009d8:	20001bec 	.word	0x20001bec

100009dc <sleep_until>:
100009dc:	b5f0      	push	{r4, r5, r6, r7, lr}
100009de:	0004      	movs	r4, r0
100009e0:	000d      	movs	r5, r1
100009e2:	2606      	movs	r6, #6
100009e4:	4276      	negs	r6, r6
100009e6:	17f7      	asrs	r7, r6, #31
100009e8:	46c6      	mov	lr, r8
100009ea:	1936      	adds	r6, r6, r4
100009ec:	416f      	adcs	r7, r5
100009ee:	b500      	push	{lr}
100009f0:	428f      	cmp	r7, r1
100009f2:	d813      	bhi.n	10000a1c <sleep_until+0x40>
100009f4:	d010      	beq.n	10000a18 <sleep_until+0x3c>
100009f6:	f000 f8cb 	bl	10000b90 <time_us_64>
100009fa:	0032      	movs	r2, r6
100009fc:	003b      	movs	r3, r7
100009fe:	1a12      	subs	r2, r2, r0
10000a00:	418b      	sbcs	r3, r1
10000a02:	2b00      	cmp	r3, #0
10000a04:	dc14      	bgt.n	10000a30 <sleep_until+0x54>
10000a06:	2b00      	cmp	r3, #0
10000a08:	d037      	beq.n	10000a7a <sleep_until+0x9e>
10000a0a:	0029      	movs	r1, r5
10000a0c:	0020      	movs	r0, r4
10000a0e:	f000 f8c9 	bl	10000ba4 <busy_wait_until>
10000a12:	bc04      	pop	{r2}
10000a14:	4690      	mov	r8, r2
10000a16:	bdf0      	pop	{r4, r5, r6, r7, pc}
10000a18:	4286      	cmp	r6, r0
10000a1a:	d9ec      	bls.n	100009f6 <sleep_until+0x1a>
10000a1c:	2600      	movs	r6, #0
10000a1e:	2700      	movs	r7, #0
10000a20:	f000 f8b6 	bl	10000b90 <time_us_64>
10000a24:	0032      	movs	r2, r6
10000a26:	003b      	movs	r3, r7
10000a28:	1a12      	subs	r2, r2, r0
10000a2a:	418b      	sbcs	r3, r1
10000a2c:	2b00      	cmp	r3, #0
10000a2e:	ddea      	ble.n	10000a06 <sleep_until+0x2a>
10000a30:	0030      	movs	r0, r6
10000a32:	0039      	movs	r1, r7
10000a34:	f7ff fda4 	bl	10000580 <alarm_pool_add_alarm_at.constprop.0>
10000a38:	2800      	cmp	r0, #0
10000a3a:	dbe6      	blt.n	10000a0a <sleep_until+0x2e>
10000a3c:	2300      	movs	r3, #0
10000a3e:	4698      	mov	r8, r3
10000a40:	46bc      	mov	ip, r7
10000a42:	4a0f      	ldr	r2, [pc, #60]	; (10000a80 <sleep_until+0xa4>)
10000a44:	4f0f      	ldr	r7, [pc, #60]	; (10000a84 <sleep_until+0xa8>)
10000a46:	6a7b      	ldr	r3, [r7, #36]	; 0x24
10000a48:	459c      	cmp	ip, r3
10000a4a:	d804      	bhi.n	10000a56 <sleep_until+0x7a>
10000a4c:	6ab9      	ldr	r1, [r7, #40]	; 0x28
10000a4e:	428e      	cmp	r6, r1
10000a50:	d9db      	bls.n	10000a0a <sleep_until+0x2e>
10000a52:	459c      	cmp	ip, r3
10000a54:	d1d9      	bne.n	10000a0a <sleep_until+0x2e>
10000a56:	6811      	ldr	r1, [r2, #0]
10000a58:	f3ef 8010 	mrs	r0, PRIMASK
10000a5c:	b672      	cpsid	i
10000a5e:	680b      	ldr	r3, [r1, #0]
10000a60:	2b00      	cmp	r3, #0
10000a62:	d0fc      	beq.n	10000a5e <sleep_until+0x82>
10000a64:	f3bf 8f5f 	dmb	sy
10000a68:	6813      	ldr	r3, [r2, #0]
10000a6a:	f3bf 8f5f 	dmb	sy
10000a6e:	4641      	mov	r1, r8
10000a70:	6019      	str	r1, [r3, #0]
10000a72:	f380 8810 	msr	PRIMASK, r0
10000a76:	bf20      	wfe
10000a78:	e7e5      	b.n	10000a46 <sleep_until+0x6a>
10000a7a:	2a00      	cmp	r2, #0
10000a7c:	d0c5      	beq.n	10000a0a <sleep_until+0x2e>
10000a7e:	e7d7      	b.n	10000a30 <sleep_until+0x54>
10000a80:	20001c00 	.word	0x20001c00
10000a84:	40054000 	.word	0x40054000

10000a88 <sleep_ms>:
10000a88:	b570      	push	{r4, r5, r6, lr}
10000a8a:	0006      	movs	r6, r0
10000a8c:	f000 f880 	bl	10000b90 <time_us_64>
10000a90:	22fa      	movs	r2, #250	; 0xfa
10000a92:	0004      	movs	r4, r0
10000a94:	000d      	movs	r5, r1
10000a96:	2300      	movs	r3, #0
10000a98:	0030      	movs	r0, r6
10000a9a:	2100      	movs	r1, #0
10000a9c:	0092      	lsls	r2, r2, #2
10000a9e:	f001 f87f 	bl	10001ba0 <__wrap___aeabi_lmul>
10000aa2:	1900      	adds	r0, r0, r4
10000aa4:	4169      	adcs	r1, r5
10000aa6:	428d      	cmp	r5, r1
10000aa8:	d805      	bhi.n	10000ab6 <sleep_ms+0x2e>
10000aaa:	d002      	beq.n	10000ab2 <sleep_ms+0x2a>
10000aac:	f7ff ff96 	bl	100009dc <sleep_until>
10000ab0:	bd70      	pop	{r4, r5, r6, pc}
10000ab2:	4284      	cmp	r4, r0
10000ab4:	d9fa      	bls.n	10000aac <sleep_ms+0x24>
10000ab6:	2001      	movs	r0, #1
10000ab8:	4240      	negs	r0, r0
10000aba:	17c1      	asrs	r1, r0, #31
10000abc:	e7f6      	b.n	10000aac <sleep_ms+0x24>
10000abe:	46c0      	nop			; (mov r8, r8)

10000ac0 <hardware_alarm_irq_handler>:
10000ac0:	b5f0      	push	{r4, r5, r6, r7, lr}
10000ac2:	46d6      	mov	lr, sl
10000ac4:	464f      	mov	r7, r9
10000ac6:	4646      	mov	r6, r8
10000ac8:	b5c0      	push	{r6, r7, lr}
10000aca:	f3ef 8305 	mrs	r3, IPSR
10000ace:	223f      	movs	r2, #63	; 0x3f
10000ad0:	4013      	ands	r3, r2
10000ad2:	0018      	movs	r0, r3
10000ad4:	3810      	subs	r0, #16
10000ad6:	f3ef 8c10 	mrs	ip, PRIMASK
10000ada:	b672      	cpsid	i
10000adc:	4d20      	ldr	r5, [pc, #128]	; (10000b60 <hardware_alarm_irq_handler+0xa0>)
10000ade:	682a      	ldr	r2, [r5, #0]
10000ae0:	2a00      	cmp	r2, #0
10000ae2:	d0fc      	beq.n	10000ade <hardware_alarm_irq_handler+0x1e>
10000ae4:	f3bf 8f5f 	dmb	sy
10000ae8:	2201      	movs	r2, #1
10000aea:	0011      	movs	r1, r2
10000aec:	4081      	lsls	r1, r0
10000aee:	4c1d      	ldr	r4, [pc, #116]	; (10000b64 <hardware_alarm_irq_handler+0xa4>)
10000af0:	4688      	mov	r8, r1
10000af2:	6361      	str	r1, [r4, #52]	; 0x34
10000af4:	491c      	ldr	r1, [pc, #112]	; (10000b68 <hardware_alarm_irq_handler+0xa8>)
10000af6:	0017      	movs	r7, r2
10000af8:	780e      	ldrb	r6, [r1, #0]
10000afa:	468a      	mov	sl, r1
10000afc:	0031      	movs	r1, r6
10000afe:	40c1      	lsrs	r1, r0
10000b00:	400f      	ands	r7, r1
10000b02:	420a      	tst	r2, r1
10000b04:	d015      	beq.n	10000b32 <hardware_alarm_irq_handler+0x72>
10000b06:	4919      	ldr	r1, [pc, #100]	; (10000b6c <hardware_alarm_irq_handler+0xac>)
10000b08:	0082      	lsls	r2, r0, #2
10000b0a:	6a64      	ldr	r4, [r4, #36]	; 0x24
10000b0c:	5851      	ldr	r1, [r2, r1]
10000b0e:	428c      	cmp	r4, r1
10000b10:	d319      	bcc.n	10000b46 <hardware_alarm_irq_handler+0x86>
10000b12:	4b17      	ldr	r3, [pc, #92]	; (10000b70 <hardware_alarm_irq_handler+0xb0>)
10000b14:	58d2      	ldr	r2, [r2, r3]
10000b16:	4643      	mov	r3, r8
10000b18:	439e      	bics	r6, r3
10000b1a:	4653      	mov	r3, sl
10000b1c:	701e      	strb	r6, [r3, #0]
10000b1e:	f3bf 8f5f 	dmb	sy
10000b22:	2300      	movs	r3, #0
10000b24:	602b      	str	r3, [r5, #0]
10000b26:	f38c 8810 	msr	PRIMASK, ip
10000b2a:	2a00      	cmp	r2, #0
10000b2c:	d006      	beq.n	10000b3c <hardware_alarm_irq_handler+0x7c>
10000b2e:	4790      	blx	r2
10000b30:	e004      	b.n	10000b3c <hardware_alarm_irq_handler+0x7c>
10000b32:	f3bf 8f5f 	dmb	sy
10000b36:	602f      	str	r7, [r5, #0]
10000b38:	f38c 8810 	msr	PRIMASK, ip
10000b3c:	bc1c      	pop	{r2, r3, r4}
10000b3e:	4690      	mov	r8, r2
10000b40:	4699      	mov	r9, r3
10000b42:	46a2      	mov	sl, r4
10000b44:	bdf0      	pop	{r4, r5, r6, r7, pc}
10000b46:	4a0b      	ldr	r2, [pc, #44]	; (10000b74 <hardware_alarm_irq_handler+0xb4>)
10000b48:	009b      	lsls	r3, r3, #2
10000b4a:	4690      	mov	r8, r2
10000b4c:	4443      	add	r3, r8
10000b4e:	681a      	ldr	r2, [r3, #0]
10000b50:	601a      	str	r2, [r3, #0]
10000b52:	f3bf 8f5f 	dmb	sy
10000b56:	2300      	movs	r3, #0
10000b58:	602b      	str	r3, [r5, #0]
10000b5a:	f38c 8810 	msr	PRIMASK, ip
10000b5e:	e7ed      	b.n	10000b3c <hardware_alarm_irq_handler+0x7c>
10000b60:	d0000128 	.word	0xd0000128
10000b64:	40054000 	.word	0x40054000
10000b68:	20001c16 	.word	0x20001c16
10000b6c:	20001c04 	.word	0x20001c04
10000b70:	20001b64 	.word	0x20001b64
10000b74:	40053fd0 	.word	0x40053fd0

10000b78 <hardware_alarm_claim>:
10000b78:	b510      	push	{r4, lr}
10000b7a:	0001      	movs	r1, r0
10000b7c:	4a02      	ldr	r2, [pc, #8]	; (10000b88 <hardware_alarm_claim+0x10>)
10000b7e:	4803      	ldr	r0, [pc, #12]	; (10000b8c <hardware_alarm_claim+0x14>)
10000b80:	f7ff fc86 	bl	10000490 <hw_claim_or_assert>
10000b84:	bd10      	pop	{r4, pc}
10000b86:	46c0      	nop			; (mov r8, r8)
10000b88:	10004210 	.word	0x10004210
10000b8c:	20001c14 	.word	0x20001c14

10000b90 <time_us_64>:
10000b90:	4b03      	ldr	r3, [pc, #12]	; (10000ba0 <time_us_64+0x10>)
10000b92:	6a59      	ldr	r1, [r3, #36]	; 0x24
10000b94:	000a      	movs	r2, r1
10000b96:	6a98      	ldr	r0, [r3, #40]	; 0x28
10000b98:	6a59      	ldr	r1, [r3, #36]	; 0x24
10000b9a:	428a      	cmp	r2, r1
10000b9c:	d1fa      	bne.n	10000b94 <time_us_64+0x4>
10000b9e:	4770      	bx	lr
10000ba0:	40054000 	.word	0x40054000

10000ba4 <busy_wait_until>:
10000ba4:	4a06      	ldr	r2, [pc, #24]	; (10000bc0 <busy_wait_until+0x1c>)
10000ba6:	6a53      	ldr	r3, [r2, #36]	; 0x24
10000ba8:	4299      	cmp	r1, r3
10000baa:	d8fc      	bhi.n	10000ba6 <busy_wait_until+0x2>
10000bac:	d107      	bne.n	10000bbe <busy_wait_until+0x1a>
10000bae:	4b04      	ldr	r3, [pc, #16]	; (10000bc0 <busy_wait_until+0x1c>)
10000bb0:	e002      	b.n	10000bb8 <busy_wait_until+0x14>
10000bb2:	6a5a      	ldr	r2, [r3, #36]	; 0x24
10000bb4:	4291      	cmp	r1, r2
10000bb6:	d102      	bne.n	10000bbe <busy_wait_until+0x1a>
10000bb8:	6a9a      	ldr	r2, [r3, #40]	; 0x28
10000bba:	4282      	cmp	r2, r0
10000bbc:	d3f9      	bcc.n	10000bb2 <busy_wait_until+0xe>
10000bbe:	4770      	bx	lr
10000bc0:	40054000 	.word	0x40054000

10000bc4 <hardware_alarm_set_callback>:
10000bc4:	b570      	push	{r4, r5, r6, lr}
10000bc6:	0004      	movs	r4, r0
10000bc8:	000d      	movs	r5, r1
10000bca:	f3ef 8610 	mrs	r6, PRIMASK
10000bce:	b672      	cpsid	i
10000bd0:	4a1a      	ldr	r2, [pc, #104]	; (10000c3c <hardware_alarm_set_callback+0x78>)
10000bd2:	6813      	ldr	r3, [r2, #0]
10000bd4:	2b00      	cmp	r3, #0
10000bd6:	d0fc      	beq.n	10000bd2 <hardware_alarm_set_callback+0xe>
10000bd8:	f3bf 8f5f 	dmb	sy
10000bdc:	2d00      	cmp	r5, #0
10000bde:	d01b      	beq.n	10000c18 <hardware_alarm_set_callback+0x54>
10000be0:	0020      	movs	r0, r4
10000be2:	f000 fd01 	bl	100015e8 <irq_get_vtable_handler>
10000be6:	4916      	ldr	r1, [pc, #88]	; (10000c40 <hardware_alarm_set_callback+0x7c>)
10000be8:	4281      	cmp	r1, r0
10000bea:	d00a      	beq.n	10000c02 <hardware_alarm_set_callback+0x3e>
10000bec:	0020      	movs	r0, r4
10000bee:	f000 fd03 	bl	100015f8 <irq_set_exclusive_handler>
10000bf2:	2101      	movs	r1, #1
10000bf4:	0020      	movs	r0, r4
10000bf6:	f000 fce5 	bl	100015c4 <irq_set_enabled>
10000bfa:	2301      	movs	r3, #1
10000bfc:	40a3      	lsls	r3, r4
10000bfe:	4a11      	ldr	r2, [pc, #68]	; (10000c44 <hardware_alarm_set_callback+0x80>)
10000c00:	6013      	str	r3, [r2, #0]
10000c02:	4b11      	ldr	r3, [pc, #68]	; (10000c48 <hardware_alarm_set_callback+0x84>)
10000c04:	00a4      	lsls	r4, r4, #2
10000c06:	50e5      	str	r5, [r4, r3]
10000c08:	f3bf 8f5f 	dmb	sy
10000c0c:	2200      	movs	r2, #0
10000c0e:	4b0b      	ldr	r3, [pc, #44]	; (10000c3c <hardware_alarm_set_callback+0x78>)
10000c10:	601a      	str	r2, [r3, #0]
10000c12:	f386 8810 	msr	PRIMASK, r6
10000c16:	bd70      	pop	{r4, r5, r6, pc}
10000c18:	4b0b      	ldr	r3, [pc, #44]	; (10000c48 <hardware_alarm_set_callback+0x84>)
10000c1a:	00a2      	lsls	r2, r4, #2
10000c1c:	50d5      	str	r5, [r2, r3]
10000c1e:	2201      	movs	r2, #1
10000c20:	40a2      	lsls	r2, r4
10000c22:	490a      	ldr	r1, [pc, #40]	; (10000c4c <hardware_alarm_set_callback+0x88>)
10000c24:	0020      	movs	r0, r4
10000c26:	780b      	ldrb	r3, [r1, #0]
10000c28:	4393      	bics	r3, r2
10000c2a:	700b      	strb	r3, [r1, #0]
10000c2c:	4904      	ldr	r1, [pc, #16]	; (10000c40 <hardware_alarm_set_callback+0x7c>)
10000c2e:	f000 fd0d 	bl	1000164c <irq_remove_handler>
10000c32:	2100      	movs	r1, #0
10000c34:	0020      	movs	r0, r4
10000c36:	f000 fcc5 	bl	100015c4 <irq_set_enabled>
10000c3a:	e7e5      	b.n	10000c08 <hardware_alarm_set_callback+0x44>
10000c3c:	d0000128 	.word	0xd0000128
10000c40:	10000ac1 	.word	0x10000ac1
10000c44:	40056038 	.word	0x40056038
10000c48:	20001b64 	.word	0x20001b64
10000c4c:	20001c16 	.word	0x20001c16

10000c50 <hardware_alarm_set_target>:
10000c50:	b5f0      	push	{r4, r5, r6, r7, lr}
10000c52:	464f      	mov	r7, r9
10000c54:	46d6      	mov	lr, sl
10000c56:	4646      	mov	r6, r8
10000c58:	b5c0      	push	{r6, r7, lr}
10000c5a:	0007      	movs	r7, r0
10000c5c:	4c30      	ldr	r4, [pc, #192]	; (10000d20 <hardware_alarm_set_target+0xd0>)
10000c5e:	6a61      	ldr	r1, [r4, #36]	; 0x24
10000c60:	000d      	movs	r5, r1
10000c62:	6aa6      	ldr	r6, [r4, #40]	; 0x28
10000c64:	6a61      	ldr	r1, [r4, #36]	; 0x24
10000c66:	42a9      	cmp	r1, r5
10000c68:	d1fa      	bne.n	10000c60 <hardware_alarm_set_target+0x10>
10000c6a:	428b      	cmp	r3, r1
10000c6c:	d808      	bhi.n	10000c80 <hardware_alarm_set_target+0x30>
10000c6e:	d005      	beq.n	10000c7c <hardware_alarm_set_target+0x2c>
10000c70:	2001      	movs	r0, #1
10000c72:	bc1c      	pop	{r2, r3, r4}
10000c74:	4690      	mov	r8, r2
10000c76:	4699      	mov	r9, r3
10000c78:	46a2      	mov	sl, r4
10000c7a:	bdf0      	pop	{r4, r5, r6, r7, pc}
10000c7c:	42b2      	cmp	r2, r6
10000c7e:	d9f7      	bls.n	10000c70 <hardware_alarm_set_target+0x20>
10000c80:	f3ef 8910 	mrs	r9, PRIMASK
10000c84:	b672      	cpsid	i
10000c86:	4827      	ldr	r0, [pc, #156]	; (10000d24 <hardware_alarm_set_target+0xd4>)
10000c88:	6801      	ldr	r1, [r0, #0]
10000c8a:	2900      	cmp	r1, #0
10000c8c:	d0fc      	beq.n	10000c88 <hardware_alarm_set_target+0x38>
10000c8e:	f3bf 8f5f 	dmb	sy
10000c92:	2501      	movs	r5, #1
10000c94:	4924      	ldr	r1, [pc, #144]	; (10000d28 <hardware_alarm_set_target+0xd8>)
10000c96:	40bd      	lsls	r5, r7
10000c98:	468c      	mov	ip, r1
10000c9a:	7809      	ldrb	r1, [r1, #0]
10000c9c:	4c20      	ldr	r4, [pc, #128]	; (10000d20 <hardware_alarm_set_target+0xd0>)
10000c9e:	000e      	movs	r6, r1
10000ca0:	432e      	orrs	r6, r5
10000ca2:	4688      	mov	r8, r1
10000ca4:	b2f1      	uxtb	r1, r6
10000ca6:	468a      	mov	sl, r1
10000ca8:	4661      	mov	r1, ip
10000caa:	4650      	mov	r0, sl
10000cac:	7008      	strb	r0, [r1, #0]
10000cae:	1d39      	adds	r1, r7, #4
10000cb0:	481e      	ldr	r0, [pc, #120]	; (10000d2c <hardware_alarm_set_target+0xdc>)
10000cb2:	0089      	lsls	r1, r1, #2
10000cb4:	6365      	str	r5, [r4, #52]	; 0x34
10000cb6:	510a      	str	r2, [r1, r4]
10000cb8:	00b9      	lsls	r1, r7, #2
10000cba:	500b      	str	r3, [r1, r0]
10000cbc:	6a21      	ldr	r1, [r4, #32]
10000cbe:	2000      	movs	r0, #0
10000cc0:	4229      	tst	r1, r5
10000cc2:	d019      	beq.n	10000cf8 <hardware_alarm_set_target+0xa8>
10000cc4:	6a61      	ldr	r1, [r4, #36]	; 0x24
10000cc6:	0008      	movs	r0, r1
10000cc8:	6aa6      	ldr	r6, [r4, #40]	; 0x28
10000cca:	6a61      	ldr	r1, [r4, #36]	; 0x24
10000ccc:	4281      	cmp	r1, r0
10000cce:	d1fa      	bne.n	10000cc6 <hardware_alarm_set_target+0x76>
10000cd0:	428b      	cmp	r3, r1
10000cd2:	d819      	bhi.n	10000d08 <hardware_alarm_set_target+0xb8>
10000cd4:	d101      	bne.n	10000cda <hardware_alarm_set_target+0x8a>
10000cd6:	42b2      	cmp	r2, r6
10000cd8:	d816      	bhi.n	10000d08 <hardware_alarm_set_target+0xb8>
10000cda:	45c2      	cmp	sl, r8
10000cdc:	d01d      	beq.n	10000d1a <hardware_alarm_set_target+0xca>
10000cde:	4b10      	ldr	r3, [pc, #64]	; (10000d20 <hardware_alarm_set_target+0xd0>)
10000ce0:	201f      	movs	r0, #31
10000ce2:	621d      	str	r5, [r3, #32]
10000ce4:	635d      	str	r5, [r3, #52]	; 0x34
10000ce6:	2301      	movs	r3, #1
10000ce8:	4007      	ands	r7, r0
10000cea:	40bb      	lsls	r3, r7
10000cec:	4a10      	ldr	r2, [pc, #64]	; (10000d30 <hardware_alarm_set_target+0xe0>)
10000cee:	381e      	subs	r0, #30
10000cf0:	6013      	str	r3, [r2, #0]
10000cf2:	4663      	mov	r3, ip
10000cf4:	4642      	mov	r2, r8
10000cf6:	701a      	strb	r2, [r3, #0]
10000cf8:	f3bf 8f5f 	dmb	sy
10000cfc:	2200      	movs	r2, #0
10000cfe:	4b09      	ldr	r3, [pc, #36]	; (10000d24 <hardware_alarm_set_target+0xd4>)
10000d00:	601a      	str	r2, [r3, #0]
10000d02:	f389 8810 	msr	PRIMASK, r9
10000d06:	e7b4      	b.n	10000c72 <hardware_alarm_set_target+0x22>
10000d08:	2000      	movs	r0, #0
10000d0a:	f3bf 8f5f 	dmb	sy
10000d0e:	2200      	movs	r2, #0
10000d10:	4b04      	ldr	r3, [pc, #16]	; (10000d24 <hardware_alarm_set_target+0xd4>)
10000d12:	601a      	str	r2, [r3, #0]
10000d14:	f389 8810 	msr	PRIMASK, r9
10000d18:	e7ab      	b.n	10000c72 <hardware_alarm_set_target+0x22>
10000d1a:	2001      	movs	r0, #1
10000d1c:	e7ec      	b.n	10000cf8 <hardware_alarm_set_target+0xa8>
10000d1e:	46c0      	nop			; (mov r8, r8)
10000d20:	40054000 	.word	0x40054000
10000d24:	d0000128 	.word	0xd0000128
10000d28:	20001c16 	.word	0x20001c16
10000d2c:	20001c04 	.word	0x20001c04
10000d30:	e000e280 	.word	0xe000e280

10000d34 <hardware_alarm_cancel>:
10000d34:	b510      	push	{r4, lr}
10000d36:	f3ef 8410 	mrs	r4, PRIMASK
10000d3a:	b672      	cpsid	i
10000d3c:	490a      	ldr	r1, [pc, #40]	; (10000d68 <hardware_alarm_cancel+0x34>)
10000d3e:	680b      	ldr	r3, [r1, #0]
10000d40:	2b00      	cmp	r3, #0
10000d42:	d0fc      	beq.n	10000d3e <hardware_alarm_cancel+0xa>
10000d44:	f3bf 8f5f 	dmb	sy
10000d48:	2301      	movs	r3, #1
10000d4a:	4083      	lsls	r3, r0
10000d4c:	4a07      	ldr	r2, [pc, #28]	; (10000d6c <hardware_alarm_cancel+0x38>)
10000d4e:	4808      	ldr	r0, [pc, #32]	; (10000d70 <hardware_alarm_cancel+0x3c>)
10000d50:	6213      	str	r3, [r2, #32]
10000d52:	7802      	ldrb	r2, [r0, #0]
10000d54:	439a      	bics	r2, r3
10000d56:	7002      	strb	r2, [r0, #0]
10000d58:	f3bf 8f5f 	dmb	sy
10000d5c:	2300      	movs	r3, #0
10000d5e:	600b      	str	r3, [r1, #0]
10000d60:	f384 8810 	msr	PRIMASK, r4
10000d64:	bd10      	pop	{r4, pc}
10000d66:	46c0      	nop			; (mov r8, r8)
10000d68:	d0000128 	.word	0xd0000128
10000d6c:	40054000 	.word	0x40054000
10000d70:	20001c16 	.word	0x20001c16

10000d74 <lock_init>:
10000d74:	4b02      	ldr	r3, [pc, #8]	; (10000d80 <lock_init+0xc>)
10000d76:	469c      	mov	ip, r3
10000d78:	4461      	add	r1, ip
10000d7a:	0089      	lsls	r1, r1, #2
10000d7c:	6001      	str	r1, [r0, #0]
10000d7e:	4770      	bx	lr
10000d80:	34000040 	.word	0x34000040

10000d84 <mutex_init>:
10000d84:	b510      	push	{r4, lr}
10000d86:	0004      	movs	r4, r0
10000d88:	f7ff fbbc 	bl	10000504 <next_striped_spin_lock_num>
10000d8c:	0001      	movs	r1, r0
10000d8e:	0020      	movs	r0, r4
10000d90:	f7ff fff0 	bl	10000d74 <lock_init>
10000d94:	23ff      	movs	r3, #255	; 0xff
10000d96:	7123      	strb	r3, [r4, #4]
10000d98:	f3bf 8f5f 	dmb	sy
10000d9c:	bd10      	pop	{r4, pc}
10000d9e:	46c0      	nop			; (mov r8, r8)

10000da0 <recursive_mutex_init>:
10000da0:	b510      	push	{r4, lr}
10000da2:	0004      	movs	r4, r0
10000da4:	f7ff fbae 	bl	10000504 <next_striped_spin_lock_num>
10000da8:	0001      	movs	r1, r0
10000daa:	0020      	movs	r0, r4
10000dac:	f7ff ffe2 	bl	10000d74 <lock_init>
10000db0:	23ff      	movs	r3, #255	; 0xff
10000db2:	80a3      	strh	r3, [r4, #4]
10000db4:	f3bf 8f5f 	dmb	sy
10000db8:	bd10      	pop	{r4, pc}
10000dba:	46c0      	nop			; (mov r8, r8)

10000dbc <ph_merge_nodes>:
10000dbc:	b570      	push	{r4, r5, r6, lr}
10000dbe:	0005      	movs	r5, r0
10000dc0:	000e      	movs	r6, r1
10000dc2:	0014      	movs	r4, r2
10000dc4:	2900      	cmp	r1, #0
10000dc6:	d024      	beq.n	10000e12 <ph_merge_nodes+0x56>
10000dc8:	2a00      	cmp	r2, #0
10000dca:	d024      	beq.n	10000e16 <ph_merge_nodes+0x5a>
10000dcc:	6880      	ldr	r0, [r0, #8]
10000dce:	686b      	ldr	r3, [r5, #4]
10000dd0:	4798      	blx	r3
10000dd2:	6829      	ldr	r1, [r5, #0]
10000dd4:	2800      	cmp	r0, #0
10000dd6:	d00e      	beq.n	10000df6 <ph_merge_nodes+0x3a>
10000dd8:	0063      	lsls	r3, r4, #1
10000dda:	191b      	adds	r3, r3, r4
10000ddc:	0072      	lsls	r2, r6, #1
10000dde:	3b03      	subs	r3, #3
10000de0:	1992      	adds	r2, r2, r6
10000de2:	18cb      	adds	r3, r1, r3
10000de4:	3a03      	subs	r2, #3
10000de6:	709e      	strb	r6, [r3, #2]
10000de8:	1888      	adds	r0, r1, r2
10000dea:	5c8a      	ldrb	r2, [r1, r2]
10000dec:	2a00      	cmp	r2, #0
10000dee:	d114      	bne.n	10000e1a <ph_merge_nodes+0x5e>
10000df0:	7004      	strb	r4, [r0, #0]
10000df2:	0030      	movs	r0, r6
10000df4:	e00e      	b.n	10000e14 <ph_merge_nodes+0x58>
10000df6:	0073      	lsls	r3, r6, #1
10000df8:	199b      	adds	r3, r3, r6
10000dfa:	0062      	lsls	r2, r4, #1
10000dfc:	3b03      	subs	r3, #3
10000dfe:	1912      	adds	r2, r2, r4
10000e00:	18cb      	adds	r3, r1, r3
10000e02:	3a03      	subs	r2, #3
10000e04:	709c      	strb	r4, [r3, #2]
10000e06:	1888      	adds	r0, r1, r2
10000e08:	5c8a      	ldrb	r2, [r1, r2]
10000e0a:	2a00      	cmp	r2, #0
10000e0c:	d000      	beq.n	10000e10 <ph_merge_nodes+0x54>
10000e0e:	705a      	strb	r2, [r3, #1]
10000e10:	7006      	strb	r6, [r0, #0]
10000e12:	0020      	movs	r0, r4
10000e14:	bd70      	pop	{r4, r5, r6, pc}
10000e16:	0008      	movs	r0, r1
10000e18:	e7fc      	b.n	10000e14 <ph_merge_nodes+0x58>
10000e1a:	705a      	strb	r2, [r3, #1]
10000e1c:	7004      	strb	r4, [r0, #0]
10000e1e:	0030      	movs	r0, r6
10000e20:	e7f8      	b.n	10000e14 <ph_merge_nodes+0x58>
10000e22:	46c0      	nop			; (mov r8, r8)

10000e24 <ph_post_alloc_init>:
10000e24:	b530      	push	{r4, r5, lr}
10000e26:	6083      	str	r3, [r0, #8]
10000e28:	2300      	movs	r3, #0
10000e2a:	b2cc      	uxtb	r4, r1
10000e2c:	7343      	strb	r3, [r0, #13]
10000e2e:	3301      	adds	r3, #1
10000e30:	7304      	strb	r4, [r0, #12]
10000e32:	6042      	str	r2, [r0, #4]
10000e34:	7383      	strb	r3, [r0, #14]
10000e36:	73c4      	strb	r4, [r0, #15]
10000e38:	000d      	movs	r5, r1
10000e3a:	6800      	ldr	r0, [r0, #0]
10000e3c:	2c01      	cmp	r4, #1
10000e3e:	d906      	bls.n	10000e4e <ph_post_alloc_init+0x2a>
10000e40:	1c42      	adds	r2, r0, #1
10000e42:	3301      	adds	r3, #1
10000e44:	b2db      	uxtb	r3, r3
10000e46:	7013      	strb	r3, [r2, #0]
10000e48:	3203      	adds	r2, #3
10000e4a:	429c      	cmp	r4, r3
10000e4c:	d1f9      	bne.n	10000e42 <ph_post_alloc_init+0x1e>
10000e4e:	21ff      	movs	r1, #255	; 0xff
10000e50:	4029      	ands	r1, r5
10000e52:	004b      	lsls	r3, r1, #1
10000e54:	1859      	adds	r1, r3, r1
10000e56:	2300      	movs	r3, #0
10000e58:	1840      	adds	r0, r0, r1
10000e5a:	3803      	subs	r0, #3
10000e5c:	7043      	strb	r3, [r0, #1]
10000e5e:	bd30      	pop	{r4, r5, pc}

10000e60 <ph_merge_two_pass>:
10000e60:	b5f8      	push	{r3, r4, r5, r6, r7, lr}
10000e62:	46ce      	mov	lr, r9
10000e64:	4647      	mov	r7, r8
10000e66:	0006      	movs	r6, r0
10000e68:	000c      	movs	r4, r1
10000e6a:	b580      	push	{r7, lr}
10000e6c:	2900      	cmp	r1, #0
10000e6e:	d007      	beq.n	10000e80 <ph_merge_two_pass+0x20>
10000e70:	004d      	lsls	r5, r1, #1
10000e72:	6803      	ldr	r3, [r0, #0]
10000e74:	186d      	adds	r5, r5, r1
10000e76:	3d03      	subs	r5, #3
10000e78:	195a      	adds	r2, r3, r5
10000e7a:	7857      	ldrb	r7, [r2, #1]
10000e7c:	2f00      	cmp	r7, #0
10000e7e:	d104      	bne.n	10000e8a <ph_merge_two_pass+0x2a>
10000e80:	0020      	movs	r0, r4
10000e82:	bc0c      	pop	{r2, r3}
10000e84:	4690      	mov	r8, r2
10000e86:	4699      	mov	r9, r3
10000e88:	bdf8      	pop	{r3, r4, r5, r6, r7, pc}
10000e8a:	0079      	lsls	r1, r7, #1
10000e8c:	19c9      	adds	r1, r1, r7
10000e8e:	3903      	subs	r1, #3
10000e90:	4688      	mov	r8, r1
10000e92:	4443      	add	r3, r8
10000e94:	7859      	ldrb	r1, [r3, #1]
10000e96:	4689      	mov	r9, r1
10000e98:	2100      	movs	r1, #0
10000e9a:	7059      	strb	r1, [r3, #1]
10000e9c:	7051      	strb	r1, [r2, #1]
10000e9e:	6873      	ldr	r3, [r6, #4]
10000ea0:	003a      	movs	r2, r7
10000ea2:	0021      	movs	r1, r4
10000ea4:	6880      	ldr	r0, [r0, #8]
10000ea6:	4798      	blx	r3
10000ea8:	6833      	ldr	r3, [r6, #0]
10000eaa:	2800      	cmp	r0, #0
10000eac:	d014      	beq.n	10000ed8 <ph_merge_two_pass+0x78>
10000eae:	4642      	mov	r2, r8
10000eb0:	189a      	adds	r2, r3, r2
10000eb2:	7094      	strb	r4, [r2, #2]
10000eb4:	1959      	adds	r1, r3, r5
10000eb6:	5d5b      	ldrb	r3, [r3, r5]
10000eb8:	2b00      	cmp	r3, #0
10000eba:	d000      	beq.n	10000ebe <ph_merge_two_pass+0x5e>
10000ebc:	7053      	strb	r3, [r2, #1]
10000ebe:	700f      	strb	r7, [r1, #0]
10000ec0:	0027      	movs	r7, r4
10000ec2:	4649      	mov	r1, r9
10000ec4:	0030      	movs	r0, r6
10000ec6:	f7ff ffcb 	bl	10000e60 <ph_merge_two_pass>
10000eca:	0039      	movs	r1, r7
10000ecc:	0002      	movs	r2, r0
10000ece:	0030      	movs	r0, r6
10000ed0:	f7ff ff74 	bl	10000dbc <ph_merge_nodes>
10000ed4:	0004      	movs	r4, r0
10000ed6:	e7d3      	b.n	10000e80 <ph_merge_two_pass+0x20>
10000ed8:	4642      	mov	r2, r8
10000eda:	4641      	mov	r1, r8
10000edc:	195d      	adds	r5, r3, r5
10000ede:	70af      	strb	r7, [r5, #2]
10000ee0:	189a      	adds	r2, r3, r2
10000ee2:	5c5b      	ldrb	r3, [r3, r1]
10000ee4:	2b00      	cmp	r3, #0
10000ee6:	d000      	beq.n	10000eea <ph_merge_two_pass+0x8a>
10000ee8:	706b      	strb	r3, [r5, #1]
10000eea:	7014      	strb	r4, [r2, #0]
10000eec:	e7e9      	b.n	10000ec2 <ph_merge_two_pass+0x62>
10000eee:	46c0      	nop			; (mov r8, r8)

10000ef0 <ph_remove_any_head>:
10000ef0:	b5f0      	push	{r4, r5, r6, r7, lr}
10000ef2:	4657      	mov	r7, sl
10000ef4:	4645      	mov	r5, r8
10000ef6:	46de      	mov	lr, fp
10000ef8:	464e      	mov	r6, r9
10000efa:	b5e0      	push	{r5, r6, r7, lr}
10000efc:	000d      	movs	r5, r1
10000efe:	006b      	lsls	r3, r5, #1
10000f00:	6801      	ldr	r1, [r0, #0]
10000f02:	195b      	adds	r3, r3, r5
10000f04:	1edf      	subs	r7, r3, #3
10000f06:	0004      	movs	r4, r0
10000f08:	5dc8      	ldrb	r0, [r1, r7]
10000f0a:	b083      	sub	sp, #12
10000f0c:	9201      	str	r2, [sp, #4]
10000f0e:	19ca      	adds	r2, r1, r7
10000f10:	2800      	cmp	r0, #0
10000f12:	d04c      	beq.n	10000fae <ph_remove_any_head+0xbe>
10000f14:	0043      	lsls	r3, r0, #1
10000f16:	181b      	adds	r3, r3, r0
10000f18:	3b03      	subs	r3, #3
10000f1a:	18cb      	adds	r3, r1, r3
10000f1c:	785e      	ldrb	r6, [r3, #1]
10000f1e:	46b4      	mov	ip, r6
10000f20:	2e00      	cmp	r6, #0
10000f22:	d116      	bne.n	10000f52 <ph_remove_any_head+0x62>
10000f24:	9e01      	ldr	r6, [sp, #4]
10000f26:	2e00      	cmp	r6, #0
10000f28:	d03e      	beq.n	10000fa8 <ph_remove_any_head+0xb8>
10000f2a:	7be6      	ldrb	r6, [r4, #15]
10000f2c:	2e00      	cmp	r6, #0
10000f2e:	d004      	beq.n	10000f3a <ph_remove_any_head+0x4a>
10000f30:	0073      	lsls	r3, r6, #1
10000f32:	199b      	adds	r3, r3, r6
10000f34:	18cb      	adds	r3, r1, r3
10000f36:	3b03      	subs	r3, #3
10000f38:	705d      	strb	r5, [r3, #1]
10000f3a:	73e5      	strb	r5, [r4, #15]
10000f3c:	2800      	cmp	r0, #0
10000f3e:	d12f      	bne.n	10000fa0 <ph_remove_any_head+0xb0>
10000f40:	2300      	movs	r3, #0
10000f42:	7053      	strb	r3, [r2, #1]
10000f44:	b003      	add	sp, #12
10000f46:	bc3c      	pop	{r2, r3, r4, r5}
10000f48:	4690      	mov	r8, r2
10000f4a:	4699      	mov	r9, r3
10000f4c:	46a2      	mov	sl, r4
10000f4e:	46ab      	mov	fp, r5
10000f50:	bdf0      	pop	{r4, r5, r6, r7, pc}
10000f52:	0072      	lsls	r2, r6, #1
10000f54:	4462      	add	r2, ip
10000f56:	3a03      	subs	r2, #3
10000f58:	1889      	adds	r1, r1, r2
10000f5a:	784a      	ldrb	r2, [r1, #1]
10000f5c:	4690      	mov	r8, r2
10000f5e:	2200      	movs	r2, #0
10000f60:	704a      	strb	r2, [r1, #1]
10000f62:	4691      	mov	r9, r2
10000f64:	705a      	strb	r2, [r3, #1]
10000f66:	0001      	movs	r1, r0
10000f68:	0032      	movs	r2, r6
10000f6a:	0020      	movs	r0, r4
10000f6c:	f7ff ff26 	bl	10000dbc <ph_merge_nodes>
10000f70:	4643      	mov	r3, r8
10000f72:	4682      	mov	sl, r0
10000f74:	2b00      	cmp	r3, #0
10000f76:	d007      	beq.n	10000f88 <ph_remove_any_head+0x98>
10000f78:	005b      	lsls	r3, r3, #1
10000f7a:	6821      	ldr	r1, [r4, #0]
10000f7c:	4443      	add	r3, r8
10000f7e:	3b03      	subs	r3, #3
10000f80:	18cb      	adds	r3, r1, r3
10000f82:	785a      	ldrb	r2, [r3, #1]
10000f84:	2a00      	cmp	r2, #0
10000f86:	d116      	bne.n	10000fb6 <ph_remove_any_head+0xc6>
10000f88:	4642      	mov	r2, r8
10000f8a:	4651      	mov	r1, sl
10000f8c:	0020      	movs	r0, r4
10000f8e:	f7ff ff15 	bl	10000dbc <ph_merge_nodes>
10000f92:	6821      	ldr	r1, [r4, #0]
10000f94:	9b01      	ldr	r3, [sp, #4]
10000f96:	19ca      	adds	r2, r1, r7
10000f98:	2b00      	cmp	r3, #0
10000f9a:	d1c6      	bne.n	10000f2a <ph_remove_any_head+0x3a>
10000f9c:	2800      	cmp	r0, #0
10000f9e:	d0cf      	beq.n	10000f40 <ph_remove_any_head+0x50>
10000fa0:	0043      	lsls	r3, r0, #1
10000fa2:	181b      	adds	r3, r3, r0
10000fa4:	3b03      	subs	r3, #3
10000fa6:	18cb      	adds	r3, r1, r3
10000fa8:	2100      	movs	r1, #0
10000faa:	7099      	strb	r1, [r3, #2]
10000fac:	e7c8      	b.n	10000f40 <ph_remove_any_head+0x50>
10000fae:	9b01      	ldr	r3, [sp, #4]
10000fb0:	2b00      	cmp	r3, #0
10000fb2:	d1ba      	bne.n	10000f2a <ph_remove_any_head+0x3a>
10000fb4:	e7c4      	b.n	10000f40 <ph_remove_any_head+0x50>
10000fb6:	0050      	lsls	r0, r2, #1
10000fb8:	1880      	adds	r0, r0, r2
10000fba:	3803      	subs	r0, #3
10000fbc:	1809      	adds	r1, r1, r0
10000fbe:	7848      	ldrb	r0, [r1, #1]
10000fc0:	4683      	mov	fp, r0
10000fc2:	4648      	mov	r0, r9
10000fc4:	7048      	strb	r0, [r1, #1]
10000fc6:	7058      	strb	r0, [r3, #1]
10000fc8:	4641      	mov	r1, r8
10000fca:	0020      	movs	r0, r4
10000fcc:	f7ff fef6 	bl	10000dbc <ph_merge_nodes>
10000fd0:	4659      	mov	r1, fp
10000fd2:	4680      	mov	r8, r0
10000fd4:	0020      	movs	r0, r4
10000fd6:	f7ff ff43 	bl	10000e60 <ph_merge_two_pass>
10000fda:	4641      	mov	r1, r8
10000fdc:	0002      	movs	r2, r0
10000fde:	0020      	movs	r0, r4
10000fe0:	f7ff feec 	bl	10000dbc <ph_merge_nodes>
10000fe4:	4680      	mov	r8, r0
10000fe6:	e7cf      	b.n	10000f88 <ph_remove_any_head+0x98>

10000fe8 <ph_remove_head>:
10000fe8:	b5f0      	push	{r4, r5, r6, r7, lr}
10000fea:	464e      	mov	r6, r9
10000fec:	4645      	mov	r5, r8
10000fee:	46de      	mov	lr, fp
10000ff0:	4657      	mov	r7, sl
10000ff2:	b5e0      	push	{r5, r6, r7, lr}
10000ff4:	7b46      	ldrb	r6, [r0, #13]
10000ff6:	0004      	movs	r4, r0
10000ff8:	0075      	lsls	r5, r6, #1
10000ffa:	6800      	ldr	r0, [r0, #0]
10000ffc:	19ad      	adds	r5, r5, r6
10000ffe:	3d03      	subs	r5, #3
10001000:	b083      	sub	sp, #12
10001002:	9101      	str	r1, [sp, #4]
10001004:	5d41      	ldrb	r1, [r0, r5]
10001006:	1942      	adds	r2, r0, r5
10001008:	2900      	cmp	r1, #0
1000100a:	d04e      	beq.n	100010aa <ph_remove_head+0xc2>
1000100c:	004b      	lsls	r3, r1, #1
1000100e:	185b      	adds	r3, r3, r1
10001010:	3b03      	subs	r3, #3
10001012:	18c3      	adds	r3, r0, r3
10001014:	785f      	ldrb	r7, [r3, #1]
10001016:	46bc      	mov	ip, r7
10001018:	2f00      	cmp	r7, #0
1000101a:	d118      	bne.n	1000104e <ph_remove_head+0x66>
1000101c:	9d01      	ldr	r5, [sp, #4]
1000101e:	2d00      	cmp	r5, #0
10001020:	d040      	beq.n	100010a4 <ph_remove_head+0xbc>
10001022:	7be5      	ldrb	r5, [r4, #15]
10001024:	2d00      	cmp	r5, #0
10001026:	d004      	beq.n	10001032 <ph_remove_head+0x4a>
10001028:	006b      	lsls	r3, r5, #1
1000102a:	195b      	adds	r3, r3, r5
1000102c:	18c3      	adds	r3, r0, r3
1000102e:	3b03      	subs	r3, #3
10001030:	705e      	strb	r6, [r3, #1]
10001032:	73e6      	strb	r6, [r4, #15]
10001034:	2900      	cmp	r1, #0
10001036:	d131      	bne.n	1000109c <ph_remove_head+0xb4>
10001038:	2300      	movs	r3, #0
1000103a:	0030      	movs	r0, r6
1000103c:	7053      	strb	r3, [r2, #1]
1000103e:	7361      	strb	r1, [r4, #13]
10001040:	b003      	add	sp, #12
10001042:	bc3c      	pop	{r2, r3, r4, r5}
10001044:	4690      	mov	r8, r2
10001046:	4699      	mov	r9, r3
10001048:	46a2      	mov	sl, r4
1000104a:	46ab      	mov	fp, r5
1000104c:	bdf0      	pop	{r4, r5, r6, r7, pc}
1000104e:	007a      	lsls	r2, r7, #1
10001050:	4462      	add	r2, ip
10001052:	3a03      	subs	r2, #3
10001054:	1880      	adds	r0, r0, r2
10001056:	7842      	ldrb	r2, [r0, #1]
10001058:	4693      	mov	fp, r2
1000105a:	2200      	movs	r2, #0
1000105c:	7042      	strb	r2, [r0, #1]
1000105e:	4691      	mov	r9, r2
10001060:	705a      	strb	r2, [r3, #1]
10001062:	0020      	movs	r0, r4
10001064:	003a      	movs	r2, r7
10001066:	f7ff fea9 	bl	10000dbc <ph_merge_nodes>
1000106a:	465b      	mov	r3, fp
1000106c:	4680      	mov	r8, r0
1000106e:	2b00      	cmp	r3, #0
10001070:	d007      	beq.n	10001082 <ph_remove_head+0x9a>
10001072:	005b      	lsls	r3, r3, #1
10001074:	6821      	ldr	r1, [r4, #0]
10001076:	445b      	add	r3, fp
10001078:	3b03      	subs	r3, #3
1000107a:	18cb      	adds	r3, r1, r3
1000107c:	785a      	ldrb	r2, [r3, #1]
1000107e:	2a00      	cmp	r2, #0
10001080:	d117      	bne.n	100010b2 <ph_remove_head+0xca>
10001082:	465a      	mov	r2, fp
10001084:	4641      	mov	r1, r8
10001086:	0020      	movs	r0, r4
10001088:	f7ff fe98 	bl	10000dbc <ph_merge_nodes>
1000108c:	9b01      	ldr	r3, [sp, #4]
1000108e:	0001      	movs	r1, r0
10001090:	6820      	ldr	r0, [r4, #0]
10001092:	1942      	adds	r2, r0, r5
10001094:	2b00      	cmp	r3, #0
10001096:	d1c4      	bne.n	10001022 <ph_remove_head+0x3a>
10001098:	2900      	cmp	r1, #0
1000109a:	d0cd      	beq.n	10001038 <ph_remove_head+0x50>
1000109c:	004b      	lsls	r3, r1, #1
1000109e:	185b      	adds	r3, r3, r1
100010a0:	3b03      	subs	r3, #3
100010a2:	18c3      	adds	r3, r0, r3
100010a4:	2000      	movs	r0, #0
100010a6:	7098      	strb	r0, [r3, #2]
100010a8:	e7c6      	b.n	10001038 <ph_remove_head+0x50>
100010aa:	9b01      	ldr	r3, [sp, #4]
100010ac:	2b00      	cmp	r3, #0
100010ae:	d1b8      	bne.n	10001022 <ph_remove_head+0x3a>
100010b0:	e7c2      	b.n	10001038 <ph_remove_head+0x50>
100010b2:	0050      	lsls	r0, r2, #1
100010b4:	1880      	adds	r0, r0, r2
100010b6:	3803      	subs	r0, #3
100010b8:	1809      	adds	r1, r1, r0
100010ba:	7848      	ldrb	r0, [r1, #1]
100010bc:	4682      	mov	sl, r0
100010be:	4648      	mov	r0, r9
100010c0:	7048      	strb	r0, [r1, #1]
100010c2:	7058      	strb	r0, [r3, #1]
100010c4:	4659      	mov	r1, fp
100010c6:	0020      	movs	r0, r4
100010c8:	f7ff fe78 	bl	10000dbc <ph_merge_nodes>
100010cc:	4653      	mov	r3, sl
100010ce:	4683      	mov	fp, r0
100010d0:	2b00      	cmp	r3, #0
100010d2:	d007      	beq.n	100010e4 <ph_remove_head+0xfc>
100010d4:	005b      	lsls	r3, r3, #1
100010d6:	6821      	ldr	r1, [r4, #0]
100010d8:	4453      	add	r3, sl
100010da:	3b03      	subs	r3, #3
100010dc:	18cb      	adds	r3, r1, r3
100010de:	785a      	ldrb	r2, [r3, #1]
100010e0:	2a00      	cmp	r2, #0
100010e2:	d106      	bne.n	100010f2 <ph_remove_head+0x10a>
100010e4:	4659      	mov	r1, fp
100010e6:	4652      	mov	r2, sl
100010e8:	0020      	movs	r0, r4
100010ea:	f7ff fe67 	bl	10000dbc <ph_merge_nodes>
100010ee:	4683      	mov	fp, r0
100010f0:	e7c7      	b.n	10001082 <ph_remove_head+0x9a>
100010f2:	0050      	lsls	r0, r2, #1
100010f4:	1880      	adds	r0, r0, r2
100010f6:	3803      	subs	r0, #3
100010f8:	1809      	adds	r1, r1, r0
100010fa:	4648      	mov	r0, r9
100010fc:	784f      	ldrb	r7, [r1, #1]
100010fe:	7048      	strb	r0, [r1, #1]
10001100:	7058      	strb	r0, [r3, #1]
10001102:	4651      	mov	r1, sl
10001104:	0020      	movs	r0, r4
10001106:	f7ff fe59 	bl	10000dbc <ph_merge_nodes>
1000110a:	0039      	movs	r1, r7
1000110c:	4681      	mov	r9, r0
1000110e:	0020      	movs	r0, r4
10001110:	f7ff fea6 	bl	10000e60 <ph_merge_two_pass>
10001114:	4649      	mov	r1, r9
10001116:	0002      	movs	r2, r0
10001118:	0020      	movs	r0, r4
1000111a:	f7ff fe4f 	bl	10000dbc <ph_merge_nodes>
1000111e:	4682      	mov	sl, r0
10001120:	e7e0      	b.n	100010e4 <ph_remove_head+0xfc>
10001122:	46c0      	nop			; (mov r8, r8)

10001124 <ph_remove_and_free_node>:
10001124:	b570      	push	{r4, r5, r6, lr}
10001126:	0004      	movs	r4, r0
10001128:	2900      	cmp	r1, #0
1000112a:	d02c      	beq.n	10001186 <ph_remove_and_free_node+0x62>
1000112c:	7b43      	ldrb	r3, [r0, #13]
1000112e:	428b      	cmp	r3, r1
10001130:	d02e      	beq.n	10001190 <ph_remove_and_free_node+0x6c>
10001132:	6805      	ldr	r5, [r0, #0]
10001134:	0048      	lsls	r0, r1, #1
10001136:	1840      	adds	r0, r0, r1
10001138:	3803      	subs	r0, #3
1000113a:	1828      	adds	r0, r5, r0
1000113c:	7882      	ldrb	r2, [r0, #2]
1000113e:	2a00      	cmp	r2, #0
10001140:	d021      	beq.n	10001186 <ph_remove_and_free_node+0x62>
10001142:	0053      	lsls	r3, r2, #1
10001144:	189b      	adds	r3, r3, r2
10001146:	3b03      	subs	r3, #3
10001148:	5cea      	ldrb	r2, [r5, r3]
1000114a:	18ee      	adds	r6, r5, r3
1000114c:	428a      	cmp	r2, r1
1000114e:	d102      	bne.n	10001156 <ph_remove_and_free_node+0x32>
10001150:	e01b      	b.n	1000118a <ph_remove_and_free_node+0x66>
10001152:	2a00      	cmp	r2, #0
10001154:	d008      	beq.n	10001168 <ph_remove_and_free_node+0x44>
10001156:	0053      	lsls	r3, r2, #1
10001158:	189b      	adds	r3, r3, r2
1000115a:	3b03      	subs	r3, #3
1000115c:	18eb      	adds	r3, r5, r3
1000115e:	785a      	ldrb	r2, [r3, #1]
10001160:	428a      	cmp	r2, r1
10001162:	d1f6      	bne.n	10001152 <ph_remove_and_free_node+0x2e>
10001164:	7842      	ldrb	r2, [r0, #1]
10001166:	705a      	strb	r2, [r3, #1]
10001168:	2300      	movs	r3, #0
1000116a:	2201      	movs	r2, #1
1000116c:	7083      	strb	r3, [r0, #2]
1000116e:	7043      	strb	r3, [r0, #1]
10001170:	0020      	movs	r0, r4
10001172:	f7ff febd 	bl	10000ef0 <ph_remove_any_head>
10001176:	7b61      	ldrb	r1, [r4, #13]
10001178:	0002      	movs	r2, r0
1000117a:	0020      	movs	r0, r4
1000117c:	f7ff fe1e 	bl	10000dbc <ph_merge_nodes>
10001180:	7360      	strb	r0, [r4, #13]
10001182:	2001      	movs	r0, #1
10001184:	e000      	b.n	10001188 <ph_remove_and_free_node+0x64>
10001186:	2000      	movs	r0, #0
10001188:	bd70      	pop	{r4, r5, r6, pc}
1000118a:	7843      	ldrb	r3, [r0, #1]
1000118c:	7033      	strb	r3, [r6, #0]
1000118e:	e7eb      	b.n	10001168 <ph_remove_and_free_node+0x44>
10001190:	2201      	movs	r2, #1
10001192:	0019      	movs	r1, r3
10001194:	f7ff feac 	bl	10000ef0 <ph_remove_any_head>
10001198:	7360      	strb	r0, [r4, #13]
1000119a:	2001      	movs	r0, #1
1000119c:	e7f4      	b.n	10001188 <ph_remove_and_free_node+0x64>
1000119e:	46c0      	nop			; (mov r8, r8)

100011a0 <runtime_init>:
100011a0:	4b2c      	ldr	r3, [pc, #176]	; (10001254 <runtime_init+0xb4>)
100011a2:	4a2d      	ldr	r2, [pc, #180]	; (10001258 <runtime_init+0xb8>)
100011a4:	b570      	push	{r4, r5, r6, lr}
100011a6:	601a      	str	r2, [r3, #0]
100011a8:	4a2c      	ldr	r2, [pc, #176]	; (1000125c <runtime_init+0xbc>)
100011aa:	4b2d      	ldr	r3, [pc, #180]	; (10001260 <runtime_init+0xc0>)
100011ac:	492d      	ldr	r1, [pc, #180]	; (10001264 <runtime_init+0xc4>)
100011ae:	601a      	str	r2, [r3, #0]
100011b0:	0010      	movs	r0, r2
100011b2:	688b      	ldr	r3, [r1, #8]
100011b4:	4398      	bics	r0, r3
100011b6:	d1fb      	bne.n	100011b0 <runtime_init+0x10>
100011b8:	4c2b      	ldr	r4, [pc, #172]	; (10001268 <runtime_init+0xc8>)
100011ba:	4b2c      	ldr	r3, [pc, #176]	; (1000126c <runtime_init+0xcc>)
100011bc:	429c      	cmp	r4, r3
100011be:	d209      	bcs.n	100011d4 <runtime_init+0x34>
100011c0:	3b01      	subs	r3, #1
100011c2:	1b1d      	subs	r5, r3, r4
100011c4:	08ad      	lsrs	r5, r5, #2
100011c6:	3501      	adds	r5, #1
100011c8:	00ad      	lsls	r5, r5, #2
100011ca:	192d      	adds	r5, r5, r4
100011cc:	cc08      	ldmia	r4!, {r3}
100011ce:	4798      	blx	r3
100011d0:	42ac      	cmp	r4, r5
100011d2:	d1fb      	bne.n	100011cc <runtime_init+0x2c>
100011d4:	f000 f898 	bl	10001308 <clocks_init>
100011d8:	4a25      	ldr	r2, [pc, #148]	; (10001270 <runtime_init+0xd0>)
100011da:	4b21      	ldr	r3, [pc, #132]	; (10001260 <runtime_init+0xc0>)
100011dc:	601a      	str	r2, [r3, #0]
100011de:	4a21      	ldr	r2, [pc, #132]	; (10001264 <runtime_init+0xc4>)
100011e0:	6893      	ldr	r3, [r2, #8]
100011e2:	01db      	lsls	r3, r3, #7
100011e4:	3380      	adds	r3, #128	; 0x80
100011e6:	d1fb      	bne.n	100011e0 <runtime_init+0x40>
100011e8:	2240      	movs	r2, #64	; 0x40
100011ea:	4b22      	ldr	r3, [pc, #136]	; (10001274 <runtime_init+0xd4>)
100011ec:	4c22      	ldr	r4, [pc, #136]	; (10001278 <runtime_init+0xd8>)
100011ee:	4d23      	ldr	r5, [pc, #140]	; (1000127c <runtime_init+0xdc>)
100011f0:	679a      	str	r2, [r3, #120]	; 0x78
100011f2:	675a      	str	r2, [r3, #116]	; 0x74
100011f4:	671a      	str	r2, [r3, #112]	; 0x70
100011f6:	66da      	str	r2, [r3, #108]	; 0x6c
100011f8:	42ac      	cmp	r4, r5
100011fa:	d208      	bcs.n	1000120e <runtime_init+0x6e>
100011fc:	6823      	ldr	r3, [r4, #0]
100011fe:	0020      	movs	r0, r4
10001200:	2b00      	cmp	r3, #0
10001202:	d021      	beq.n	10001248 <runtime_init+0xa8>
10001204:	3408      	adds	r4, #8
10001206:	f7ff fdcb 	bl	10000da0 <recursive_mutex_init>
1000120a:	42ac      	cmp	r4, r5
1000120c:	d3f6      	bcc.n	100011fc <runtime_init+0x5c>
1000120e:	4c1c      	ldr	r4, [pc, #112]	; (10001280 <runtime_init+0xe0>)
10001210:	4d1c      	ldr	r5, [pc, #112]	; (10001284 <runtime_init+0xe4>)
10001212:	68a1      	ldr	r1, [r4, #8]
10001214:	22c0      	movs	r2, #192	; 0xc0
10001216:	0028      	movs	r0, r5
10001218:	f000 fd48 	bl	10001cac <__wrap___aeabi_memcpy>
1000121c:	60a5      	str	r5, [r4, #8]
1000121e:	f7ff f963 	bl	100004e8 <spin_locks_reset>
10001222:	f000 fb4b 	bl	100018bc <irq_init_priorities>
10001226:	f7ff fba7 	bl	10000978 <alarm_pool_init_default>
1000122a:	4c17      	ldr	r4, [pc, #92]	; (10001288 <runtime_init+0xe8>)
1000122c:	4b17      	ldr	r3, [pc, #92]	; (1000128c <runtime_init+0xec>)
1000122e:	429c      	cmp	r4, r3
10001230:	d209      	bcs.n	10001246 <runtime_init+0xa6>
10001232:	3b01      	subs	r3, #1
10001234:	1b1d      	subs	r5, r3, r4
10001236:	08ad      	lsrs	r5, r5, #2
10001238:	3501      	adds	r5, #1
1000123a:	00ad      	lsls	r5, r5, #2
1000123c:	192d      	adds	r5, r5, r4
1000123e:	cc08      	ldmia	r4!, {r3}
10001240:	4798      	blx	r3
10001242:	42a5      	cmp	r5, r4
10001244:	d1fb      	bne.n	1000123e <runtime_init+0x9e>
10001246:	bd70      	pop	{r4, r5, r6, pc}
10001248:	3408      	adds	r4, #8
1000124a:	f7ff fd9b 	bl	10000d84 <mutex_init>
1000124e:	42ac      	cmp	r4, r5
10001250:	d3d4      	bcc.n	100011fc <runtime_init+0x5c>
10001252:	e7dc      	b.n	1000120e <runtime_init+0x6e>
10001254:	4000e000 	.word	0x4000e000
10001258:	fefbcdbf 	.word	0xfefbcdbf
1000125c:	003c7ffe 	.word	0x003c7ffe
10001260:	4000f000 	.word	0x4000f000
10001264:	4000c000 	.word	0x4000c000
10001268:	200019d0 	.word	0x200019d0
1000126c:	200019e0 	.word	0x200019e0
10001270:	01ffffff 	.word	0x01ffffff
10001274:	4001f000 	.word	0x4001f000
10001278:	200019c8 	.word	0x200019c8
1000127c:	200019d0 	.word	0x200019d0
10001280:	e000ed00 	.word	0xe000ed00
10001284:	20000000 	.word	0x20000000
10001288:	200019e0 	.word	0x200019e0
1000128c:	200019e8 	.word	0x200019e8

10001290 <_exit>:
10001290:	be00      	bkpt	0x0000
10001292:	e7fd      	b.n	10001290 <_exit>

10001294 <_sbrk>:
10001294:	4a09      	ldr	r2, [pc, #36]	; (100012bc <_sbrk+0x28>)
10001296:	0003      	movs	r3, r0
10001298:	6810      	ldr	r0, [r2, #0]
1000129a:	2800      	cmp	r0, #0
1000129c:	d005      	beq.n	100012aa <_sbrk+0x16>
1000129e:	4908      	ldr	r1, [pc, #32]	; (100012c0 <_sbrk+0x2c>)
100012a0:	18c3      	adds	r3, r0, r3
100012a2:	428b      	cmp	r3, r1
100012a4:	d807      	bhi.n	100012b6 <_sbrk+0x22>
100012a6:	6013      	str	r3, [r2, #0]
100012a8:	4770      	bx	lr
100012aa:	4806      	ldr	r0, [pc, #24]	; (100012c4 <_sbrk+0x30>)
100012ac:	4904      	ldr	r1, [pc, #16]	; (100012c0 <_sbrk+0x2c>)
100012ae:	18c3      	adds	r3, r0, r3
100012b0:	6010      	str	r0, [r2, #0]
100012b2:	428b      	cmp	r3, r1
100012b4:	d9f7      	bls.n	100012a6 <_sbrk+0x12>
100012b6:	2001      	movs	r0, #1
100012b8:	4240      	negs	r0, r0
100012ba:	e7f5      	b.n	100012a8 <_sbrk+0x14>
100012bc:	20001be4 	.word	0x20001be4
100012c0:	20040000 	.word	0x20040000
100012c4:	20001e1c 	.word	0x20001e1c

100012c8 <exit>:
100012c8:	be00      	bkpt	0x0000
100012ca:	e7fd      	b.n	100012c8 <exit>

100012cc <panic>:
100012cc:	b40f      	push	{r0, r1, r2, r3}
100012ce:	b500      	push	{lr}
100012d0:	4808      	ldr	r0, [pc, #32]	; (100012f4 <panic+0x28>)
100012d2:	b083      	sub	sp, #12
100012d4:	f000 fe20 	bl	10001f18 <__wrap_puts>
100012d8:	9b04      	ldr	r3, [sp, #16]
100012da:	2b00      	cmp	r3, #0
100012dc:	d007      	beq.n	100012ee <panic+0x22>
100012de:	a905      	add	r1, sp, #20
100012e0:	0018      	movs	r0, r3
100012e2:	9101      	str	r1, [sp, #4]
100012e4:	f000 fb72 	bl	100019cc <weak_raw_vprintf>
100012e8:	4803      	ldr	r0, [pc, #12]	; (100012f8 <panic+0x2c>)
100012ea:	f000 fe15 	bl	10001f18 <__wrap_puts>
100012ee:	be00      	bkpt	0x0000
100012f0:	e7fd      	b.n	100012ee <panic+0x22>
100012f2:	46c0      	nop			; (mov r8, r8)
100012f4:	10004234 	.word	0x10004234
100012f8:	10004244 	.word	0x10004244

100012fc <hard_assertion_failure>:
100012fc:	b510      	push	{r4, lr}
100012fe:	4801      	ldr	r0, [pc, #4]	; (10001304 <hard_assertion_failure+0x8>)
10001300:	f7ff ffe4 	bl	100012cc <panic>
10001304:	10004248 	.word	0x10004248

10001308 <clocks_init>:
10001308:	b530      	push	{r4, r5, lr}
1000130a:	200c      	movs	r0, #12
1000130c:	b083      	sub	sp, #12
1000130e:	f000 fb39 	bl	10001984 <watchdog_start_tick>
10001312:	f7ff f8e1 	bl	100004d8 <running_on_fpga>
10001316:	2800      	cmp	r0, #0
10001318:	d00e      	beq.n	10001338 <clocks_init+0x30>
1000131a:	4b94      	ldr	r3, [pc, #592]	; (1000156c <clocks_init+0x264>)
1000131c:	4a94      	ldr	r2, [pc, #592]	; (10001570 <clocks_init+0x268>)
1000131e:	601a      	str	r2, [r3, #0]
10001320:	605a      	str	r2, [r3, #4]
10001322:	609a      	str	r2, [r3, #8]
10001324:	60da      	str	r2, [r3, #12]
10001326:	611a      	str	r2, [r3, #16]
10001328:	615a      	str	r2, [r3, #20]
1000132a:	619a      	str	r2, [r3, #24]
1000132c:	61da      	str	r2, [r3, #28]
1000132e:	621a      	str	r2, [r3, #32]
10001330:	4a90      	ldr	r2, [pc, #576]	; (10001574 <clocks_init+0x26c>)
10001332:	625a      	str	r2, [r3, #36]	; 0x24
10001334:	b003      	add	sp, #12
10001336:	bd30      	pop	{r4, r5, pc}
10001338:	4c8f      	ldr	r4, [pc, #572]	; (10001578 <clocks_init+0x270>)
1000133a:	67a0      	str	r0, [r4, #120]	; 0x78
1000133c:	f000 fb2a 	bl	10001994 <xosc_init>
10001340:	2201      	movs	r2, #1
10001342:	4b8e      	ldr	r3, [pc, #568]	; (1000157c <clocks_init+0x274>)
10001344:	601a      	str	r2, [r3, #0]
10001346:	6c63      	ldr	r3, [r4, #68]	; 0x44
10001348:	2b01      	cmp	r3, #1
1000134a:	d1fc      	bne.n	10001346 <clocks_init+0x3e>
1000134c:	2203      	movs	r2, #3
1000134e:	4b8c      	ldr	r3, [pc, #560]	; (10001580 <clocks_init+0x278>)
10001350:	601a      	str	r2, [r3, #0]
10001352:	4a89      	ldr	r2, [pc, #548]	; (10001578 <clocks_init+0x270>)
10001354:	6b93      	ldr	r3, [r2, #56]	; 0x38
10001356:	2b01      	cmp	r3, #1
10001358:	d1fc      	bne.n	10001354 <clocks_init+0x4c>
1000135a:	2402      	movs	r4, #2
1000135c:	2101      	movs	r1, #1
1000135e:	4a89      	ldr	r2, [pc, #548]	; (10001584 <clocks_init+0x27c>)
10001360:	4889      	ldr	r0, [pc, #548]	; (10001588 <clocks_init+0x280>)
10001362:	3305      	adds	r3, #5
10001364:	9400      	str	r4, [sp, #0]
10001366:	f000 fabb 	bl	100018e0 <pll_init>
1000136a:	2305      	movs	r3, #5
1000136c:	4a87      	ldr	r2, [pc, #540]	; (1000158c <clocks_init+0x284>)
1000136e:	2101      	movs	r1, #1
10001370:	4887      	ldr	r0, [pc, #540]	; (10001590 <clocks_init+0x288>)
10001372:	9400      	str	r4, [sp, #0]
10001374:	f000 fab4 	bl	100018e0 <pll_init>
10001378:	4b86      	ldr	r3, [pc, #536]	; (10001594 <clocks_init+0x28c>)
1000137a:	685a      	ldr	r2, [r3, #4]
1000137c:	2aff      	cmp	r2, #255	; 0xff
1000137e:	d802      	bhi.n	10001386 <clocks_init+0x7e>
10001380:	2280      	movs	r2, #128	; 0x80
10001382:	0052      	lsls	r2, r2, #1
10001384:	605a      	str	r2, [r3, #4]
10001386:	2280      	movs	r2, #128	; 0x80
10001388:	4c78      	ldr	r4, [pc, #480]	; (1000156c <clocks_init+0x264>)
1000138a:	4b7d      	ldr	r3, [pc, #500]	; (10001580 <clocks_init+0x278>)
1000138c:	6921      	ldr	r1, [r4, #16]
1000138e:	0112      	lsls	r2, r2, #4
10001390:	4d80      	ldr	r5, [pc, #512]	; (10001594 <clocks_init+0x28c>)
10001392:	601a      	str	r2, [r3, #0]
10001394:	2900      	cmp	r1, #0
10001396:	d005      	beq.n	100013a4 <clocks_init+0x9c>
10001398:	6960      	ldr	r0, [r4, #20]
1000139a:	f000 fb65 	bl	10001a68 <__wrap___aeabi_uidiv>
1000139e:	3001      	adds	r0, #1
100013a0:	3801      	subs	r0, #1
100013a2:	d1fd      	bne.n	100013a0 <clocks_init+0x98>
100013a4:	21e0      	movs	r1, #224	; 0xe0
100013a6:	4b7b      	ldr	r3, [pc, #492]	; (10001594 <clocks_init+0x28c>)
100013a8:	2002      	movs	r0, #2
100013aa:	681a      	ldr	r2, [r3, #0]
100013ac:	4011      	ands	r1, r2
100013ae:	2280      	movs	r2, #128	; 0x80
100013b0:	0152      	lsls	r2, r2, #5
100013b2:	432a      	orrs	r2, r5
100013b4:	6011      	str	r1, [r2, #0]
100013b6:	6819      	ldr	r1, [r3, #0]
100013b8:	4048      	eors	r0, r1
100013ba:	2103      	movs	r1, #3
100013bc:	4001      	ands	r1, r0
100013be:	6011      	str	r1, [r2, #0]
100013c0:	2104      	movs	r1, #4
100013c2:	689a      	ldr	r2, [r3, #8]
100013c4:	4211      	tst	r1, r2
100013c6:	d0fc      	beq.n	100013c2 <clocks_init+0xba>
100013c8:	2280      	movs	r2, #128	; 0x80
100013ca:	2180      	movs	r1, #128	; 0x80
100013cc:	0192      	lsls	r2, r2, #6
100013ce:	432a      	orrs	r2, r5
100013d0:	0109      	lsls	r1, r1, #4
100013d2:	6011      	str	r1, [r2, #0]
100013d4:	2280      	movs	r2, #128	; 0x80
100013d6:	0052      	lsls	r2, r2, #1
100013d8:	605a      	str	r2, [r3, #4]
100013da:	4b6f      	ldr	r3, [pc, #444]	; (10001598 <clocks_init+0x290>)
100013dc:	6123      	str	r3, [r4, #16]
100013de:	4b6f      	ldr	r3, [pc, #444]	; (1000159c <clocks_init+0x294>)
100013e0:	6859      	ldr	r1, [r3, #4]
100013e2:	29ff      	cmp	r1, #255	; 0xff
100013e4:	d800      	bhi.n	100013e8 <clocks_init+0xe0>
100013e6:	605a      	str	r2, [r3, #4]
100013e8:	2203      	movs	r2, #3
100013ea:	486c      	ldr	r0, [pc, #432]	; (1000159c <clocks_init+0x294>)
100013ec:	4b63      	ldr	r3, [pc, #396]	; (1000157c <clocks_init+0x274>)
100013ee:	2101      	movs	r1, #1
100013f0:	601a      	str	r2, [r3, #0]
100013f2:	0002      	movs	r2, r0
100013f4:	6893      	ldr	r3, [r2, #8]
100013f6:	4219      	tst	r1, r3
100013f8:	d0fc      	beq.n	100013f4 <clocks_init+0xec>
100013fa:	25e0      	movs	r5, #224	; 0xe0
100013fc:	6813      	ldr	r3, [r2, #0]
100013fe:	401d      	ands	r5, r3
10001400:	2380      	movs	r3, #128	; 0x80
10001402:	015b      	lsls	r3, r3, #5
10001404:	4303      	orrs	r3, r0
10001406:	601d      	str	r5, [r3, #0]
10001408:	6812      	ldr	r2, [r2, #0]
1000140a:	404a      	eors	r2, r1
1000140c:	2103      	movs	r1, #3
1000140e:	4011      	ands	r1, r2
10001410:	6019      	str	r1, [r3, #0]
10001412:	2102      	movs	r1, #2
10001414:	4a61      	ldr	r2, [pc, #388]	; (1000159c <clocks_init+0x294>)
10001416:	6893      	ldr	r3, [r2, #8]
10001418:	4219      	tst	r1, r3
1000141a:	d0fc      	beq.n	10001416 <clocks_init+0x10e>
1000141c:	2380      	movs	r3, #128	; 0x80
1000141e:	2180      	movs	r1, #128	; 0x80
10001420:	019b      	lsls	r3, r3, #6
10001422:	4303      	orrs	r3, r0
10001424:	0109      	lsls	r1, r1, #4
10001426:	6019      	str	r1, [r3, #0]
10001428:	2180      	movs	r1, #128	; 0x80
1000142a:	4b5d      	ldr	r3, [pc, #372]	; (100015a0 <clocks_init+0x298>)
1000142c:	0049      	lsls	r1, r1, #1
1000142e:	6051      	str	r1, [r2, #4]
10001430:	6163      	str	r3, [r4, #20]
10001432:	4b5c      	ldr	r3, [pc, #368]	; (100015a4 <clocks_init+0x29c>)
10001434:	685a      	ldr	r2, [r3, #4]
10001436:	2aff      	cmp	r2, #255	; 0xff
10001438:	d800      	bhi.n	1000143c <clocks_init+0x134>
1000143a:	6059      	str	r1, [r3, #4]
1000143c:	2280      	movs	r2, #128	; 0x80
1000143e:	4b5a      	ldr	r3, [pc, #360]	; (100015a8 <clocks_init+0x2a0>)
10001440:	69e1      	ldr	r1, [r4, #28]
10001442:	0112      	lsls	r2, r2, #4
10001444:	4d57      	ldr	r5, [pc, #348]	; (100015a4 <clocks_init+0x29c>)
10001446:	601a      	str	r2, [r3, #0]
10001448:	2900      	cmp	r1, #0
1000144a:	d005      	beq.n	10001458 <clocks_init+0x150>
1000144c:	6960      	ldr	r0, [r4, #20]
1000144e:	f000 fb0b 	bl	10001a68 <__wrap___aeabi_uidiv>
10001452:	3001      	adds	r0, #1
10001454:	3801      	subs	r0, #1
10001456:	d1fd      	bne.n	10001454 <clocks_init+0x14c>
10001458:	22e0      	movs	r2, #224	; 0xe0
1000145a:	4952      	ldr	r1, [pc, #328]	; (100015a4 <clocks_init+0x29c>)
1000145c:	680b      	ldr	r3, [r1, #0]
1000145e:	401a      	ands	r2, r3
10001460:	2380      	movs	r3, #128	; 0x80
10001462:	015b      	lsls	r3, r3, #5
10001464:	432b      	orrs	r3, r5
10001466:	601a      	str	r2, [r3, #0]
10001468:	2380      	movs	r3, #128	; 0x80
1000146a:	2280      	movs	r2, #128	; 0x80
1000146c:	019b      	lsls	r3, r3, #6
1000146e:	432b      	orrs	r3, r5
10001470:	0112      	lsls	r2, r2, #4
10001472:	601a      	str	r2, [r3, #0]
10001474:	2280      	movs	r2, #128	; 0x80
10001476:	4b3e      	ldr	r3, [pc, #248]	; (10001570 <clocks_init+0x268>)
10001478:	0052      	lsls	r2, r2, #1
1000147a:	604a      	str	r2, [r1, #4]
1000147c:	61e3      	str	r3, [r4, #28]
1000147e:	4b4b      	ldr	r3, [pc, #300]	; (100015ac <clocks_init+0x2a4>)
10001480:	6859      	ldr	r1, [r3, #4]
10001482:	29ff      	cmp	r1, #255	; 0xff
10001484:	d800      	bhi.n	10001488 <clocks_init+0x180>
10001486:	605a      	str	r2, [r3, #4]
10001488:	2280      	movs	r2, #128	; 0x80
1000148a:	4b49      	ldr	r3, [pc, #292]	; (100015b0 <clocks_init+0x2a8>)
1000148c:	6a21      	ldr	r1, [r4, #32]
1000148e:	0112      	lsls	r2, r2, #4
10001490:	4d46      	ldr	r5, [pc, #280]	; (100015ac <clocks_init+0x2a4>)
10001492:	601a      	str	r2, [r3, #0]
10001494:	2900      	cmp	r1, #0
10001496:	d005      	beq.n	100014a4 <clocks_init+0x19c>
10001498:	6960      	ldr	r0, [r4, #20]
1000149a:	f000 fae5 	bl	10001a68 <__wrap___aeabi_uidiv>
1000149e:	3001      	adds	r0, #1
100014a0:	3801      	subs	r0, #1
100014a2:	d1fd      	bne.n	100014a0 <clocks_init+0x198>
100014a4:	22e0      	movs	r2, #224	; 0xe0
100014a6:	4941      	ldr	r1, [pc, #260]	; (100015ac <clocks_init+0x2a4>)
100014a8:	680b      	ldr	r3, [r1, #0]
100014aa:	401a      	ands	r2, r3
100014ac:	2380      	movs	r3, #128	; 0x80
100014ae:	015b      	lsls	r3, r3, #5
100014b0:	432b      	orrs	r3, r5
100014b2:	601a      	str	r2, [r3, #0]
100014b4:	2380      	movs	r3, #128	; 0x80
100014b6:	2280      	movs	r2, #128	; 0x80
100014b8:	019b      	lsls	r3, r3, #6
100014ba:	432b      	orrs	r3, r5
100014bc:	0112      	lsls	r2, r2, #4
100014be:	601a      	str	r2, [r3, #0]
100014c0:	2380      	movs	r3, #128	; 0x80
100014c2:	2280      	movs	r2, #128	; 0x80
100014c4:	005b      	lsls	r3, r3, #1
100014c6:	604b      	str	r3, [r1, #4]
100014c8:	4b29      	ldr	r3, [pc, #164]	; (10001570 <clocks_init+0x268>)
100014ca:	02d2      	lsls	r2, r2, #11
100014cc:	6223      	str	r3, [r4, #32]
100014ce:	4b39      	ldr	r3, [pc, #228]	; (100015b4 <clocks_init+0x2ac>)
100014d0:	6859      	ldr	r1, [r3, #4]
100014d2:	4291      	cmp	r1, r2
100014d4:	d200      	bcs.n	100014d8 <clocks_init+0x1d0>
100014d6:	605a      	str	r2, [r3, #4]
100014d8:	2280      	movs	r2, #128	; 0x80
100014da:	4b37      	ldr	r3, [pc, #220]	; (100015b8 <clocks_init+0x2b0>)
100014dc:	6a61      	ldr	r1, [r4, #36]	; 0x24
100014de:	0112      	lsls	r2, r2, #4
100014e0:	4d34      	ldr	r5, [pc, #208]	; (100015b4 <clocks_init+0x2ac>)
100014e2:	601a      	str	r2, [r3, #0]
100014e4:	2900      	cmp	r1, #0
100014e6:	d005      	beq.n	100014f4 <clocks_init+0x1ec>
100014e8:	6960      	ldr	r0, [r4, #20]
100014ea:	f000 fabd 	bl	10001a68 <__wrap___aeabi_uidiv>
100014ee:	3001      	adds	r0, #1
100014f0:	3801      	subs	r0, #1
100014f2:	d1fd      	bne.n	100014f0 <clocks_init+0x1e8>
100014f4:	22e0      	movs	r2, #224	; 0xe0
100014f6:	492f      	ldr	r1, [pc, #188]	; (100015b4 <clocks_init+0x2ac>)
100014f8:	680b      	ldr	r3, [r1, #0]
100014fa:	401a      	ands	r2, r3
100014fc:	2380      	movs	r3, #128	; 0x80
100014fe:	015b      	lsls	r3, r3, #5
10001500:	432b      	orrs	r3, r5
10001502:	601a      	str	r2, [r3, #0]
10001504:	2380      	movs	r3, #128	; 0x80
10001506:	2280      	movs	r2, #128	; 0x80
10001508:	019b      	lsls	r3, r3, #6
1000150a:	432b      	orrs	r3, r5
1000150c:	0112      	lsls	r2, r2, #4
1000150e:	601a      	str	r2, [r3, #0]
10001510:	2380      	movs	r3, #128	; 0x80
10001512:	02db      	lsls	r3, r3, #11
10001514:	604b      	str	r3, [r1, #4]
10001516:	4b17      	ldr	r3, [pc, #92]	; (10001574 <clocks_init+0x26c>)
10001518:	6263      	str	r3, [r4, #36]	; 0x24
1000151a:	4b28      	ldr	r3, [pc, #160]	; (100015bc <clocks_init+0x2b4>)
1000151c:	685a      	ldr	r2, [r3, #4]
1000151e:	2aff      	cmp	r2, #255	; 0xff
10001520:	d802      	bhi.n	10001528 <clocks_init+0x220>
10001522:	2280      	movs	r2, #128	; 0x80
10001524:	0052      	lsls	r2, r2, #1
10001526:	605a      	str	r2, [r3, #4]
10001528:	2280      	movs	r2, #128	; 0x80
1000152a:	4b25      	ldr	r3, [pc, #148]	; (100015c0 <clocks_init+0x2b8>)
1000152c:	69a1      	ldr	r1, [r4, #24]
1000152e:	0112      	lsls	r2, r2, #4
10001530:	4d22      	ldr	r5, [pc, #136]	; (100015bc <clocks_init+0x2b4>)
10001532:	601a      	str	r2, [r3, #0]
10001534:	2900      	cmp	r1, #0
10001536:	d005      	beq.n	10001544 <clocks_init+0x23c>
10001538:	6960      	ldr	r0, [r4, #20]
1000153a:	f000 fa95 	bl	10001a68 <__wrap___aeabi_uidiv>
1000153e:	3001      	adds	r0, #1
10001540:	3801      	subs	r0, #1
10001542:	d1fd      	bne.n	10001540 <clocks_init+0x238>
10001544:	22e0      	movs	r2, #224	; 0xe0
10001546:	491d      	ldr	r1, [pc, #116]	; (100015bc <clocks_init+0x2b4>)
10001548:	680b      	ldr	r3, [r1, #0]
1000154a:	401a      	ands	r2, r3
1000154c:	2380      	movs	r3, #128	; 0x80
1000154e:	015b      	lsls	r3, r3, #5
10001550:	432b      	orrs	r3, r5
10001552:	601a      	str	r2, [r3, #0]
10001554:	2380      	movs	r3, #128	; 0x80
10001556:	2280      	movs	r2, #128	; 0x80
10001558:	019b      	lsls	r3, r3, #6
1000155a:	432b      	orrs	r3, r5
1000155c:	0112      	lsls	r2, r2, #4
1000155e:	601a      	str	r2, [r3, #0]
10001560:	2380      	movs	r3, #128	; 0x80
10001562:	005b      	lsls	r3, r3, #1
10001564:	604b      	str	r3, [r1, #4]
10001566:	4b0e      	ldr	r3, [pc, #56]	; (100015a0 <clocks_init+0x298>)
10001568:	61a3      	str	r3, [r4, #24]
1000156a:	e6e3      	b.n	10001334 <clocks_init+0x2c>
1000156c:	20001b74 	.word	0x20001b74
10001570:	02dc6c00 	.word	0x02dc6c00
10001574:	0000b71b 	.word	0x0000b71b
10001578:	40008000 	.word	0x40008000
1000157c:	4000b03c 	.word	0x4000b03c
10001580:	4000b030 	.word	0x4000b030
10001584:	59682f00 	.word	0x59682f00
10001588:	40028000 	.word	0x40028000
1000158c:	1c9c3800 	.word	0x1c9c3800
10001590:	4002c000 	.word	0x4002c000
10001594:	40008030 	.word	0x40008030
10001598:	00b71b00 	.word	0x00b71b00
1000159c:	4000803c 	.word	0x4000803c
100015a0:	07735940 	.word	0x07735940
100015a4:	40008054 	.word	0x40008054
100015a8:	4000b054 	.word	0x4000b054
100015ac:	40008060 	.word	0x40008060
100015b0:	4000b060 	.word	0x4000b060
100015b4:	4000806c 	.word	0x4000806c
100015b8:	4000b06c 	.word	0x4000b06c
100015bc:	40008048 	.word	0x40008048
100015c0:	4000b048 	.word	0x4000b048

100015c4 <irq_set_enabled>:
100015c4:	2301      	movs	r3, #1
100015c6:	4083      	lsls	r3, r0
100015c8:	2900      	cmp	r1, #0
100015ca:	d004      	beq.n	100015d6 <irq_set_enabled+0x12>
100015cc:	4a03      	ldr	r2, [pc, #12]	; (100015dc <irq_set_enabled+0x18>)
100015ce:	6013      	str	r3, [r2, #0]
100015d0:	4a03      	ldr	r2, [pc, #12]	; (100015e0 <irq_set_enabled+0x1c>)
100015d2:	6013      	str	r3, [r2, #0]
100015d4:	4770      	bx	lr
100015d6:	4a03      	ldr	r2, [pc, #12]	; (100015e4 <irq_set_enabled+0x20>)
100015d8:	6013      	str	r3, [r2, #0]
100015da:	e7fb      	b.n	100015d4 <irq_set_enabled+0x10>
100015dc:	e000e280 	.word	0xe000e280
100015e0:	e000e100 	.word	0xe000e100
100015e4:	e000e180 	.word	0xe000e180

100015e8 <irq_get_vtable_handler>:
100015e8:	4b02      	ldr	r3, [pc, #8]	; (100015f4 <irq_get_vtable_handler+0xc>)
100015ea:	3010      	adds	r0, #16
100015ec:	689b      	ldr	r3, [r3, #8]
100015ee:	0080      	lsls	r0, r0, #2
100015f0:	58c0      	ldr	r0, [r0, r3]
100015f2:	4770      	bx	lr
100015f4:	e000ed00 	.word	0xe000ed00

100015f8 <irq_set_exclusive_handler>:
100015f8:	b570      	push	{r4, r5, r6, lr}
100015fa:	000d      	movs	r5, r1
100015fc:	f3ef 8610 	mrs	r6, PRIMASK
10001600:	b672      	cpsid	i
10001602:	4a0f      	ldr	r2, [pc, #60]	; (10001640 <irq_set_exclusive_handler+0x48>)
10001604:	6813      	ldr	r3, [r2, #0]
10001606:	2b00      	cmp	r3, #0
10001608:	d0fc      	beq.n	10001604 <irq_set_exclusive_handler+0xc>
1000160a:	f3bf 8f5f 	dmb	sy
1000160e:	4b0d      	ldr	r3, [pc, #52]	; (10001644 <irq_set_exclusive_handler+0x4c>)
10001610:	3010      	adds	r0, #16
10001612:	689b      	ldr	r3, [r3, #8]
10001614:	0084      	lsls	r4, r0, #2
10001616:	591b      	ldr	r3, [r3, r4]
10001618:	4a0b      	ldr	r2, [pc, #44]	; (10001648 <irq_set_exclusive_handler+0x50>)
1000161a:	4293      	cmp	r3, r2
1000161c:	d003      	beq.n	10001626 <irq_set_exclusive_handler+0x2e>
1000161e:	429d      	cmp	r5, r3
10001620:	d001      	beq.n	10001626 <irq_set_exclusive_handler+0x2e>
10001622:	f7ff fe6b 	bl	100012fc <hard_assertion_failure>
10001626:	4b07      	ldr	r3, [pc, #28]	; (10001644 <irq_set_exclusive_handler+0x4c>)
10001628:	689b      	ldr	r3, [r3, #8]
1000162a:	511d      	str	r5, [r3, r4]
1000162c:	f3bf 8f5f 	dmb	sy
10001630:	f3bf 8f5f 	dmb	sy
10001634:	2200      	movs	r2, #0
10001636:	4b02      	ldr	r3, [pc, #8]	; (10001640 <irq_set_exclusive_handler+0x48>)
10001638:	601a      	str	r2, [r3, #0]
1000163a:	f386 8810 	msr	PRIMASK, r6
1000163e:	bd70      	pop	{r4, r5, r6, pc}
10001640:	d0000124 	.word	0xd0000124
10001644:	e000ed00 	.word	0xe000ed00
10001648:	100001cd 	.word	0x100001cd

1000164c <irq_remove_handler>:
1000164c:	b5f0      	push	{r4, r5, r6, r7, lr}
1000164e:	46de      	mov	lr, fp
10001650:	4657      	mov	r7, sl
10001652:	464e      	mov	r6, r9
10001654:	4645      	mov	r5, r8
10001656:	b5e0      	push	{r5, r6, r7, lr}
10001658:	000c      	movs	r4, r1
1000165a:	b083      	sub	sp, #12
1000165c:	f3ef 8a10 	mrs	sl, PRIMASK
10001660:	b672      	cpsid	i
10001662:	4a5b      	ldr	r2, [pc, #364]	; (100017d0 <irq_remove_handler+0x184>)
10001664:	6813      	ldr	r3, [r2, #0]
10001666:	2b00      	cmp	r3, #0
10001668:	d0fc      	beq.n	10001664 <irq_remove_handler+0x18>
1000166a:	f3bf 8f5f 	dmb	sy
1000166e:	2210      	movs	r2, #16
10001670:	4691      	mov	r9, r2
10001672:	4481      	add	r9, r0
10001674:	464a      	mov	r2, r9
10001676:	4b57      	ldr	r3, [pc, #348]	; (100017d4 <irq_remove_handler+0x188>)
10001678:	0096      	lsls	r6, r2, #2
1000167a:	689b      	ldr	r3, [r3, #8]
1000167c:	599d      	ldr	r5, [r3, r6]
1000167e:	4b56      	ldr	r3, [pc, #344]	; (100017d8 <irq_remove_handler+0x18c>)
10001680:	4698      	mov	r8, r3
10001682:	429d      	cmp	r5, r3
10001684:	d005      	beq.n	10001692 <irq_remove_handler+0x46>
10001686:	42a5      	cmp	r5, r4
10001688:	d016      	beq.n	100016b8 <irq_remove_handler+0x6c>
1000168a:	4f54      	ldr	r7, [pc, #336]	; (100017dc <irq_remove_handler+0x190>)
1000168c:	1beb      	subs	r3, r5, r7
1000168e:	2b2f      	cmp	r3, #47	; 0x2f
10001690:	d914      	bls.n	100016bc <irq_remove_handler+0x70>
10001692:	4b50      	ldr	r3, [pc, #320]	; (100017d4 <irq_remove_handler+0x188>)
10001694:	689b      	ldr	r3, [r3, #8]
10001696:	519d      	str	r5, [r3, r6]
10001698:	f3bf 8f5f 	dmb	sy
1000169c:	f3bf 8f5f 	dmb	sy
100016a0:	2200      	movs	r2, #0
100016a2:	4b4b      	ldr	r3, [pc, #300]	; (100017d0 <irq_remove_handler+0x184>)
100016a4:	601a      	str	r2, [r3, #0]
100016a6:	f38a 8810 	msr	PRIMASK, sl
100016aa:	b003      	add	sp, #12
100016ac:	bc3c      	pop	{r2, r3, r4, r5}
100016ae:	4690      	mov	r8, r2
100016b0:	4699      	mov	r9, r3
100016b2:	46a2      	mov	sl, r4
100016b4:	46ab      	mov	fp, r5
100016b6:	bdf0      	pop	{r4, r5, r6, r7, pc}
100016b8:	001d      	movs	r5, r3
100016ba:	e7ea      	b.n	10001692 <irq_remove_handler+0x46>
100016bc:	2301      	movs	r3, #1
100016be:	4083      	lsls	r3, r0
100016c0:	469b      	mov	fp, r3
100016c2:	465a      	mov	r2, fp
100016c4:	4b46      	ldr	r3, [pc, #280]	; (100017e0 <irq_remove_handler+0x194>)
100016c6:	681b      	ldr	r3, [r3, #0]
100016c8:	401a      	ands	r2, r3
100016ca:	9200      	str	r2, [sp, #0]
100016cc:	465a      	mov	r2, fp
100016ce:	4b45      	ldr	r3, [pc, #276]	; (100017e4 <irq_remove_handler+0x198>)
100016d0:	601a      	str	r2, [r3, #0]
100016d2:	f3bf 8f5f 	dmb	sy
100016d6:	f7fe fdc6 	bl	10000266 <__get_current_exception>
100016da:	9001      	str	r0, [sp, #4]
100016dc:	2800      	cmp	r0, #0
100016de:	d003      	beq.n	100016e8 <irq_remove_handler+0x9c>
100016e0:	4581      	cmp	r9, r0
100016e2:	d001      	beq.n	100016e8 <irq_remove_handler+0x9c>
100016e4:	f7ff fe0a 	bl	100012fc <hard_assertion_failure>
100016e8:	2301      	movs	r3, #1
100016ea:	002a      	movs	r2, r5
100016ec:	439a      	bics	r2, r3
100016ee:	0013      	movs	r3, r2
100016f0:	493d      	ldr	r1, [pc, #244]	; (100017e8 <irq_remove_handler+0x19c>)
100016f2:	1bdb      	subs	r3, r3, r7
100016f4:	415b      	adcs	r3, r3
100016f6:	4359      	muls	r1, r3
100016f8:	0d09      	lsrs	r1, r1, #20
100016fa:	6893      	ldr	r3, [r2, #8]
100016fc:	429c      	cmp	r4, r3
100016fe:	d108      	bne.n	10001712 <irq_remove_handler+0xc6>
10001700:	e05b      	b.n	100017ba <irq_remove_handler+0x16e>
10001702:	0043      	lsls	r3, r0, #1
10001704:	181b      	adds	r3, r3, r0
10001706:	009b      	lsls	r3, r3, #2
10001708:	18fb      	adds	r3, r7, r3
1000170a:	6898      	ldr	r0, [r3, #8]
1000170c:	42a0      	cmp	r0, r4
1000170e:	d011      	beq.n	10001734 <irq_remove_handler+0xe8>
10001710:	001a      	movs	r2, r3
10001712:	2006      	movs	r0, #6
10001714:	5610      	ldrsb	r0, [r2, r0]
10001716:	2800      	cmp	r0, #0
10001718:	daf3      	bge.n	10001702 <irq_remove_handler+0xb6>
1000171a:	9b00      	ldr	r3, [sp, #0]
1000171c:	2b00      	cmp	r3, #0
1000171e:	d005      	beq.n	1000172c <irq_remove_handler+0xe0>
10001720:	465a      	mov	r2, fp
10001722:	4b32      	ldr	r3, [pc, #200]	; (100017ec <irq_remove_handler+0x1a0>)
10001724:	601a      	str	r2, [r3, #0]
10001726:	4b2e      	ldr	r3, [pc, #184]	; (100017e0 <irq_remove_handler+0x194>)
10001728:	601a      	str	r2, [r3, #0]
1000172a:	e7b2      	b.n	10001692 <irq_remove_handler+0x46>
1000172c:	465a      	mov	r2, fp
1000172e:	4b2d      	ldr	r3, [pc, #180]	; (100017e4 <irq_remove_handler+0x198>)
10001730:	601a      	str	r2, [r3, #0]
10001732:	e7ae      	b.n	10001692 <irq_remove_handler+0x46>
10001734:	2006      	movs	r0, #6
10001736:	5618      	ldrsb	r0, [r3, r0]
10001738:	2800      	cmp	r0, #0
1000173a:	db22      	blt.n	10001782 <irq_remove_handler+0x136>
1000173c:	0042      	lsls	r2, r0, #1
1000173e:	1811      	adds	r1, r2, r0
10001740:	0089      	lsls	r1, r1, #2
10001742:	187c      	adds	r4, r7, r1
10001744:	4688      	mov	r8, r1
10001746:	68a1      	ldr	r1, [r4, #8]
10001748:	6099      	str	r1, [r3, #8]
1000174a:	79e1      	ldrb	r1, [r4, #7]
1000174c:	71d9      	strb	r1, [r3, #7]
1000174e:	2106      	movs	r1, #6
10001750:	5661      	ldrsb	r1, [r4, r1]
10001752:	7199      	strb	r1, [r3, #6]
10001754:	79a1      	ldrb	r1, [r4, #6]
10001756:	297f      	cmp	r1, #127	; 0x7f
10001758:	d81f      	bhi.n	1000179a <irq_remove_handler+0x14e>
1000175a:	88a4      	ldrh	r4, [r4, #4]
1000175c:	1af9      	subs	r1, r7, r3
1000175e:	0564      	lsls	r4, r4, #21
10001760:	1524      	asrs	r4, r4, #20
10001762:	4444      	add	r4, r8
10001764:	1909      	adds	r1, r1, r4
10001766:	24e0      	movs	r4, #224	; 0xe0
10001768:	0509      	lsls	r1, r1, #20
1000176a:	0d49      	lsrs	r1, r1, #21
1000176c:	0224      	lsls	r4, r4, #8
1000176e:	4321      	orrs	r1, r4
10001770:	8099      	strh	r1, [r3, #4]
10001772:	1812      	adds	r2, r2, r0
10001774:	4b1e      	ldr	r3, [pc, #120]	; (100017f0 <irq_remove_handler+0x1a4>)
10001776:	0092      	lsls	r2, r2, #2
10001778:	18bf      	adds	r7, r7, r2
1000177a:	781a      	ldrb	r2, [r3, #0]
1000177c:	7018      	strb	r0, [r3, #0]
1000177e:	71ba      	strb	r2, [r7, #6]
10001780:	e7cb      	b.n	1000171a <irq_remove_handler+0xce>
10001782:	9801      	ldr	r0, [sp, #4]
10001784:	2800      	cmp	r0, #0
10001786:	d10b      	bne.n	100017a0 <irq_remove_handler+0x154>
10001788:	30ff      	adds	r0, #255	; 0xff
1000178a:	7190      	strb	r0, [r2, #6]
1000178c:	4819      	ldr	r0, [pc, #100]	; (100017f4 <irq_remove_handler+0x1a8>)
1000178e:	8090      	strh	r0, [r2, #4]
10001790:	4a17      	ldr	r2, [pc, #92]	; (100017f0 <irq_remove_handler+0x1a4>)
10001792:	7810      	ldrb	r0, [r2, #0]
10001794:	7011      	strb	r1, [r2, #0]
10001796:	7198      	strb	r0, [r3, #6]
10001798:	e7bf      	b.n	1000171a <irq_remove_handler+0xce>
1000179a:	21bd      	movs	r1, #189	; 0xbd
1000179c:	0209      	lsls	r1, r1, #8
1000179e:	e7e7      	b.n	10001770 <irq_remove_handler+0x124>
100017a0:	4a15      	ldr	r2, [pc, #84]	; (100017f8 <irq_remove_handler+0x1ac>)
100017a2:	4916      	ldr	r1, [pc, #88]	; (100017fc <irq_remove_handler+0x1b0>)
100017a4:	1ad2      	subs	r2, r2, r3
100017a6:	3a08      	subs	r2, #8
100017a8:	0250      	lsls	r0, r2, #9
100017aa:	0d40      	lsrs	r0, r0, #21
100017ac:	4301      	orrs	r1, r0
100017ae:	8099      	strh	r1, [r3, #4]
100017b0:	4913      	ldr	r1, [pc, #76]	; (10001800 <irq_remove_handler+0x1b4>)
100017b2:	0852      	lsrs	r2, r2, #1
100017b4:	430a      	orrs	r2, r1
100017b6:	80da      	strh	r2, [r3, #6]
100017b8:	e7af      	b.n	1000171a <irq_remove_handler+0xce>
100017ba:	2006      	movs	r0, #6
100017bc:	5610      	ldrsb	r0, [r2, r0]
100017be:	0013      	movs	r3, r2
100017c0:	2800      	cmp	r0, #0
100017c2:	dabb      	bge.n	1000173c <irq_remove_handler+0xf0>
100017c4:	9a01      	ldr	r2, [sp, #4]
100017c6:	2a00      	cmp	r2, #0
100017c8:	d1ea      	bne.n	100017a0 <irq_remove_handler+0x154>
100017ca:	4645      	mov	r5, r8
100017cc:	e7e0      	b.n	10001790 <irq_remove_handler+0x144>
100017ce:	46c0      	nop			; (mov r8, r8)
100017d0:	d0000124 	.word	0xd0000124
100017d4:	e000ed00 	.word	0xe000ed00
100017d8:	100001cd 	.word	0x100001cd
100017dc:	2000110c 	.word	0x2000110c
100017e0:	e000e100 	.word	0xe000e100
100017e4:	e000e180 	.word	0xe000e180
100017e8:	0000aaaa 	.word	0x0000aaaa
100017ec:	e000e280 	.word	0xe000e280
100017f0:	20001c15 	.word	0x20001c15
100017f4:	ffffbd00 	.word	0xffffbd00
100017f8:	20001146 	.word	0x20001146
100017fc:	fffff000 	.word	0xfffff000
10001800:	fffff800 	.word	0xfffff800

10001804 <irq_add_tail_to_free_list>:
10001804:	b5f8      	push	{r3, r4, r5, r6, r7, lr}
10001806:	2501      	movs	r5, #1
10001808:	0004      	movs	r4, r0
1000180a:	4305      	orrs	r5, r0
1000180c:	f7fe fd2b 	bl	10000266 <__get_current_exception>
10001810:	0003      	movs	r3, r0
10001812:	f3ef 8610 	mrs	r6, PRIMASK
10001816:	b672      	cpsid	i
10001818:	4921      	ldr	r1, [pc, #132]	; (100018a0 <irq_add_tail_to_free_list+0x9c>)
1000181a:	680a      	ldr	r2, [r1, #0]
1000181c:	2a00      	cmp	r2, #0
1000181e:	d0fc      	beq.n	1000181a <irq_add_tail_to_free_list+0x16>
10001820:	f3bf 8f5f 	dmb	sy
10001824:	4a1f      	ldr	r2, [pc, #124]	; (100018a4 <irq_add_tail_to_free_list+0xa0>)
10001826:	0020      	movs	r0, r4
10001828:	491f      	ldr	r1, [pc, #124]	; (100018a8 <irq_add_tail_to_free_list+0xa4>)
1000182a:	1a80      	subs	r0, r0, r2
1000182c:	4140      	adcs	r0, r0
1000182e:	4341      	muls	r1, r0
10001830:	0d09      	lsrs	r1, r1, #20
10001832:	481e      	ldr	r0, [pc, #120]	; (100018ac <irq_add_tail_to_free_list+0xa8>)
10001834:	009b      	lsls	r3, r3, #2
10001836:	6887      	ldr	r7, [r0, #8]
10001838:	b249      	sxtb	r1, r1
1000183a:	58ff      	ldr	r7, [r7, r3]
1000183c:	42af      	cmp	r7, r5
1000183e:	d01c      	beq.n	1000187a <irq_add_tail_to_free_list+0x76>
10001840:	2306      	movs	r3, #6
10001842:	56d3      	ldrsb	r3, [r2, r3]
10001844:	428b      	cmp	r3, r1
10001846:	d01c      	beq.n	10001882 <irq_add_tail_to_free_list+0x7e>
10001848:	2312      	movs	r3, #18
1000184a:	56d3      	ldrsb	r3, [r2, r3]
1000184c:	428b      	cmp	r3, r1
1000184e:	d022      	beq.n	10001896 <irq_add_tail_to_free_list+0x92>
10001850:	231e      	movs	r3, #30
10001852:	56d3      	ldrsb	r3, [r2, r3]
10001854:	428b      	cmp	r3, r1
10001856:	d020      	beq.n	1000189a <irq_add_tail_to_free_list+0x96>
10001858:	232a      	movs	r3, #42	; 0x2a
1000185a:	56d3      	ldrsb	r3, [r2, r3]
1000185c:	2003      	movs	r0, #3
1000185e:	428b      	cmp	r3, r1
10001860:	d010      	beq.n	10001884 <irq_add_tail_to_free_list+0x80>
10001862:	4b13      	ldr	r3, [pc, #76]	; (100018b0 <irq_add_tail_to_free_list+0xac>)
10001864:	781a      	ldrb	r2, [r3, #0]
10001866:	7019      	strb	r1, [r3, #0]
10001868:	71a2      	strb	r2, [r4, #6]
1000186a:	f3bf 8f5f 	dmb	sy
1000186e:	2200      	movs	r2, #0
10001870:	4b0b      	ldr	r3, [pc, #44]	; (100018a0 <irq_add_tail_to_free_list+0x9c>)
10001872:	601a      	str	r2, [r3, #0]
10001874:	f386 8810 	msr	PRIMASK, r6
10001878:	bdf8      	pop	{r3, r4, r5, r6, r7, pc}
1000187a:	6882      	ldr	r2, [r0, #8]
1000187c:	480d      	ldr	r0, [pc, #52]	; (100018b4 <irq_add_tail_to_free_list+0xb0>)
1000187e:	50d0      	str	r0, [r2, r3]
10001880:	e7ef      	b.n	10001862 <irq_add_tail_to_free_list+0x5e>
10001882:	2000      	movs	r0, #0
10001884:	0043      	lsls	r3, r0, #1
10001886:	181b      	adds	r3, r3, r0
10001888:	009b      	lsls	r3, r3, #2
1000188a:	18d2      	adds	r2, r2, r3
1000188c:	23ff      	movs	r3, #255	; 0xff
1000188e:	7193      	strb	r3, [r2, #6]
10001890:	4b09      	ldr	r3, [pc, #36]	; (100018b8 <irq_add_tail_to_free_list+0xb4>)
10001892:	8093      	strh	r3, [r2, #4]
10001894:	e7e5      	b.n	10001862 <irq_add_tail_to_free_list+0x5e>
10001896:	2001      	movs	r0, #1
10001898:	e7f4      	b.n	10001884 <irq_add_tail_to_free_list+0x80>
1000189a:	2002      	movs	r0, #2
1000189c:	e7f2      	b.n	10001884 <irq_add_tail_to_free_list+0x80>
1000189e:	46c0      	nop			; (mov r8, r8)
100018a0:	d0000124 	.word	0xd0000124
100018a4:	2000110c 	.word	0x2000110c
100018a8:	0000aaaa 	.word	0x0000aaaa
100018ac:	e000ed00 	.word	0xe000ed00
100018b0:	20001c15 	.word	0x20001c15
100018b4:	100001cd 	.word	0x100001cd
100018b8:	ffffbd00 	.word	0xffffbd00

100018bc <irq_init_priorities>:
100018bc:	4b05      	ldr	r3, [pc, #20]	; (100018d4 <irq_init_priorities+0x18>)
100018be:	4a06      	ldr	r2, [pc, #24]	; (100018d8 <irq_init_priorities+0x1c>)
100018c0:	6013      	str	r3, [r2, #0]
100018c2:	4a06      	ldr	r2, [pc, #24]	; (100018dc <irq_init_priorities+0x20>)
100018c4:	6013      	str	r3, [r2, #0]
100018c6:	6053      	str	r3, [r2, #4]
100018c8:	6093      	str	r3, [r2, #8]
100018ca:	60d3      	str	r3, [r2, #12]
100018cc:	6113      	str	r3, [r2, #16]
100018ce:	6153      	str	r3, [r2, #20]
100018d0:	6193      	str	r3, [r2, #24]
100018d2:	4770      	bx	lr
100018d4:	80808080 	.word	0x80808080
100018d8:	e000e400 	.word	0xe000e400
100018dc:	e000e404 	.word	0xe000e404

100018e0 <pll_init>:
100018e0:	b5f8      	push	{r3, r4, r5, r6, r7, lr}
100018e2:	0004      	movs	r4, r0
100018e4:	200c      	movs	r0, #12
100018e6:	0017      	movs	r7, r2
100018e8:	001d      	movs	r5, r3
100018ea:	000e      	movs	r6, r1
100018ec:	f000 f8bc 	bl	10001a68 <__wrap___aeabi_uidiv>
100018f0:	0141      	lsls	r1, r0, #5
100018f2:	1a09      	subs	r1, r1, r0
100018f4:	018b      	lsls	r3, r1, #6
100018f6:	1a59      	subs	r1, r3, r1
100018f8:	00c9      	lsls	r1, r1, #3
100018fa:	1809      	adds	r1, r1, r0
100018fc:	0189      	lsls	r1, r1, #6
100018fe:	0038      	movs	r0, r7
10001900:	f000 f8b2 	bl	10001a68 <__wrap___aeabi_uidiv>
10001904:	9a06      	ldr	r2, [sp, #24]
10001906:	042b      	lsls	r3, r5, #16
10001908:	0312      	lsls	r2, r2, #12
1000190a:	4313      	orrs	r3, r2
1000190c:	6822      	ldr	r2, [r4, #0]
1000190e:	2a00      	cmp	r2, #0
10001910:	db21      	blt.n	10001956 <pll_init+0x76>
10001912:	4a18      	ldr	r2, [pc, #96]	; (10001974 <pll_init+0x94>)
10001914:	18a2      	adds	r2, r4, r2
10001916:	4251      	negs	r1, r2
10001918:	414a      	adcs	r2, r1
1000191a:	2180      	movs	r1, #128	; 0x80
1000191c:	0149      	lsls	r1, r1, #5
1000191e:	468c      	mov	ip, r1
10001920:	4252      	negs	r2, r2
10001922:	400a      	ands	r2, r1
10001924:	4914      	ldr	r1, [pc, #80]	; (10001978 <pll_init+0x98>)
10001926:	4462      	add	r2, ip
10001928:	600a      	str	r2, [r1, #0]
1000192a:	4914      	ldr	r1, [pc, #80]	; (1000197c <pll_init+0x9c>)
1000192c:	600a      	str	r2, [r1, #0]
1000192e:	4914      	ldr	r1, [pc, #80]	; (10001980 <pll_init+0xa0>)
10001930:	0017      	movs	r7, r2
10001932:	688d      	ldr	r5, [r1, #8]
10001934:	43af      	bics	r7, r5
10001936:	d1fb      	bne.n	10001930 <pll_init+0x50>
10001938:	21c0      	movs	r1, #192	; 0xc0
1000193a:	1d22      	adds	r2, r4, #4
1000193c:	0189      	lsls	r1, r1, #6
1000193e:	4311      	orrs	r1, r2
10001940:	2221      	movs	r2, #33	; 0x21
10001942:	6026      	str	r6, [r4, #0]
10001944:	60a0      	str	r0, [r4, #8]
10001946:	600a      	str	r2, [r1, #0]
10001948:	6822      	ldr	r2, [r4, #0]
1000194a:	2a00      	cmp	r2, #0
1000194c:	dafc      	bge.n	10001948 <pll_init+0x68>
1000194e:	60e3      	str	r3, [r4, #12]
10001950:	2308      	movs	r3, #8
10001952:	600b      	str	r3, [r1, #0]
10001954:	bdf8      	pop	{r3, r4, r5, r6, r7, pc}
10001956:	223f      	movs	r2, #63	; 0x3f
10001958:	6821      	ldr	r1, [r4, #0]
1000195a:	400a      	ands	r2, r1
1000195c:	42b2      	cmp	r2, r6
1000195e:	d1d8      	bne.n	10001912 <pll_init+0x32>
10001960:	68a2      	ldr	r2, [r4, #8]
10001962:	0512      	lsls	r2, r2, #20
10001964:	0d12      	lsrs	r2, r2, #20
10001966:	4282      	cmp	r2, r0
10001968:	d1d3      	bne.n	10001912 <pll_init+0x32>
1000196a:	68e2      	ldr	r2, [r4, #12]
1000196c:	2b00      	cmp	r3, #0
1000196e:	d1d0      	bne.n	10001912 <pll_init+0x32>
10001970:	e7f0      	b.n	10001954 <pll_init+0x74>
10001972:	46c0      	nop			; (mov r8, r8)
10001974:	bffd4000 	.word	0xbffd4000
10001978:	4000e000 	.word	0x4000e000
1000197c:	4000f000 	.word	0x4000f000
10001980:	4000c000 	.word	0x4000c000

10001984 <watchdog_start_tick>:
10001984:	2380      	movs	r3, #128	; 0x80
10001986:	4a02      	ldr	r2, [pc, #8]	; (10001990 <watchdog_start_tick+0xc>)
10001988:	009b      	lsls	r3, r3, #2
1000198a:	4303      	orrs	r3, r0
1000198c:	62d3      	str	r3, [r2, #44]	; 0x2c
1000198e:	4770      	bx	lr
10001990:	40058000 	.word	0x40058000

10001994 <xosc_init>:
10001994:	23aa      	movs	r3, #170	; 0xaa
10001996:	4a06      	ldr	r2, [pc, #24]	; (100019b0 <xosc_init+0x1c>)
10001998:	011b      	lsls	r3, r3, #4
1000199a:	6013      	str	r3, [r2, #0]
1000199c:	232f      	movs	r3, #47	; 0x2f
1000199e:	4905      	ldr	r1, [pc, #20]	; (100019b4 <xosc_init+0x20>)
100019a0:	60d3      	str	r3, [r2, #12]
100019a2:	4b05      	ldr	r3, [pc, #20]	; (100019b8 <xosc_init+0x24>)
100019a4:	6019      	str	r1, [r3, #0]
100019a6:	6853      	ldr	r3, [r2, #4]
100019a8:	2b00      	cmp	r3, #0
100019aa:	dafc      	bge.n	100019a6 <xosc_init+0x12>
100019ac:	4770      	bx	lr
100019ae:	46c0      	nop			; (mov r8, r8)
100019b0:	40024000 	.word	0x40024000
100019b4:	00fab000 	.word	0x00fab000
100019b8:	40026000 	.word	0x40026000

100019bc <_out_char>:
100019bc:	b510      	push	{r4, lr}
100019be:	2800      	cmp	r0, #0
100019c0:	d100      	bne.n	100019c4 <_out_char+0x8>
100019c2:	bd10      	pop	{r4, pc}
100019c4:	f000 fa56 	bl	10001e74 <__wrap_putchar>
100019c8:	e7fb      	b.n	100019c2 <_out_char+0x6>
100019ca:	46c0      	nop			; (mov r8, r8)

100019cc <weak_raw_vprintf>:
100019cc:	b510      	push	{r4, lr}
100019ce:	4a09      	ldr	r2, [pc, #36]	; (100019f4 <weak_raw_vprintf+0x28>)
100019d0:	0003      	movs	r3, r0
100019d2:	6814      	ldr	r4, [r2, #0]
100019d4:	b084      	sub	sp, #16
100019d6:	2c00      	cmp	r4, #0
100019d8:	d008      	beq.n	100019ec <weak_raw_vprintf+0x20>
100019da:	2201      	movs	r2, #1
100019dc:	9100      	str	r1, [sp, #0]
100019de:	4806      	ldr	r0, [pc, #24]	; (100019f8 <weak_raw_vprintf+0x2c>)
100019e0:	4252      	negs	r2, r2
100019e2:	a903      	add	r1, sp, #12
100019e4:	47a0      	blx	r4
100019e6:	2001      	movs	r0, #1
100019e8:	b004      	add	sp, #16
100019ea:	bd10      	pop	{r4, pc}
100019ec:	f000 fa94 	bl	10001f18 <__wrap_puts>
100019f0:	2000      	movs	r0, #0
100019f2:	e7f9      	b.n	100019e8 <weak_raw_vprintf+0x1c>
100019f4:	20001be8 	.word	0x20001be8
100019f8:	100019bd 	.word	0x100019bd

100019fc <__aeabi_bits_init>:
100019fc:	4801      	ldr	r0, [pc, #4]	; (10001a04 <__aeabi_bits_init+0x8>)
100019fe:	2104      	movs	r1, #4
10001a00:	4b01      	ldr	r3, [pc, #4]	; (10001a08 <__aeabi_bits_init+0xc>)
10001a02:	4718      	bx	r3
10001a04:	20001160 	.word	0x20001160
10001a08:	10001a2d 	.word	0x10001a2d

10001a0c <rom_func_lookup>:
10001a0c:	2314      	movs	r3, #20
10001a0e:	b510      	push	{r4, lr}
10001a10:	0001      	movs	r1, r0
10001a12:	8818      	ldrh	r0, [r3, #0]
10001a14:	3304      	adds	r3, #4
10001a16:	881b      	ldrh	r3, [r3, #0]
10001a18:	4798      	blx	r3
10001a1a:	bd10      	pop	{r4, pc}

10001a1c <rom_data_lookup>:
10001a1c:	2316      	movs	r3, #22
10001a1e:	b510      	push	{r4, lr}
10001a20:	0001      	movs	r1, r0
10001a22:	8818      	ldrh	r0, [r3, #0]
10001a24:	3302      	adds	r3, #2
10001a26:	881b      	ldrh	r3, [r3, #0]
10001a28:	4798      	blx	r3
10001a2a:	bd10      	pop	{r4, pc}

10001a2c <rom_funcs_lookup>:
10001a2c:	b5f0      	push	{r4, r5, r6, r7, lr}
10001a2e:	46c6      	mov	lr, r8
10001a30:	b500      	push	{lr}
10001a32:	2900      	cmp	r1, #0
10001a34:	d016      	beq.n	10001a64 <rom_funcs_lookup+0x38>
10001a36:	2314      	movs	r3, #20
10001a38:	0004      	movs	r4, r0
10001a3a:	2501      	movs	r5, #1
10001a3c:	4698      	mov	r8, r3
10001a3e:	2718      	movs	r7, #24
10001a40:	0089      	lsls	r1, r1, #2
10001a42:	1846      	adds	r6, r0, r1
10001a44:	4643      	mov	r3, r8
10001a46:	6821      	ldr	r1, [r4, #0]
10001a48:	8818      	ldrh	r0, [r3, #0]
10001a4a:	883b      	ldrh	r3, [r7, #0]
10001a4c:	4798      	blx	r3
10001a4e:	c401      	stmia	r4!, {r0}
10001a50:	1e43      	subs	r3, r0, #1
10001a52:	4198      	sbcs	r0, r3
10001a54:	4240      	negs	r0, r0
10001a56:	4005      	ands	r5, r0
10001a58:	42a6      	cmp	r6, r4
10001a5a:	d1f3      	bne.n	10001a44 <rom_funcs_lookup+0x18>
10001a5c:	0028      	movs	r0, r5
10001a5e:	bc04      	pop	{r2}
10001a60:	4690      	mov	r8, r2
10001a62:	bdf0      	pop	{r4, r5, r6, r7, pc}
10001a64:	2501      	movs	r5, #1
10001a66:	e7f9      	b.n	10001a5c <rom_funcs_lookup+0x30>

10001a68 <__wrap___aeabi_uidiv>:
10001a68:	4a11      	ldr	r2, [pc, #68]	; (10001ab0 <divmod_u32u32_savestate+0x18>)
10001a6a:	6f93      	ldr	r3, [r2, #120]	; 0x78
10001a6c:	089b      	lsrs	r3, r3, #2
10001a6e:	d213      	bcs.n	10001a98 <divmod_u32u32_savestate>

10001a70 <divmod_u32u32_unsafe>:
10001a70:	6610      	str	r0, [r2, #96]	; 0x60
10001a72:	6651      	str	r1, [r2, #100]	; 0x64
10001a74:	2900      	cmp	r1, #0
10001a76:	d005      	beq.n	10001a84 <divmod_u32u32_unsafe+0x14>
10001a78:	e7ff      	b.n	10001a7a <divmod_u32u32_unsafe+0xa>
10001a7a:	e7ff      	b.n	10001a7c <divmod_u32u32_unsafe+0xc>
10001a7c:	e7ff      	b.n	10001a7e <divmod_u32u32_unsafe+0xe>
10001a7e:	6f51      	ldr	r1, [r2, #116]	; 0x74
10001a80:	6f10      	ldr	r0, [r2, #112]	; 0x70
10001a82:	4770      	bx	lr
10001a84:	b504      	push	{r2, lr}
10001a86:	2800      	cmp	r0, #0
10001a88:	d001      	beq.n	10001a8e <divmod_u32u32_unsafe+0x1e>
10001a8a:	2000      	movs	r0, #0
10001a8c:	43c0      	mvns	r0, r0
10001a8e:	f002 fb67 	bl	10004160 <____aeabi_idiv0_veneer>
10001a92:	2100      	movs	r1, #0
10001a94:	bd04      	pop	{r2, pc}
10001a96:	46c0      	nop			; (mov r8, r8)

10001a98 <divmod_u32u32_savestate>:
10001a98:	b5f0      	push	{r4, r5, r6, r7, lr}
10001a9a:	6e14      	ldr	r4, [r2, #96]	; 0x60
10001a9c:	6e55      	ldr	r5, [r2, #100]	; 0x64
10001a9e:	6f57      	ldr	r7, [r2, #116]	; 0x74
10001aa0:	6f16      	ldr	r6, [r2, #112]	; 0x70
10001aa2:	f7ff ffe5 	bl	10001a70 <divmod_u32u32_unsafe>
10001aa6:	6614      	str	r4, [r2, #96]	; 0x60
10001aa8:	6655      	str	r5, [r2, #100]	; 0x64
10001aaa:	6757      	str	r7, [r2, #116]	; 0x74
10001aac:	6716      	str	r6, [r2, #112]	; 0x70
10001aae:	bdf0      	pop	{r4, r5, r6, r7, pc}
10001ab0:	d0000000 	.word	0xd0000000

10001ab4 <__aeabi_double_init>:
10001ab4:	2313      	movs	r3, #19
10001ab6:	b570      	push	{r4, r5, r6, lr}
10001ab8:	781d      	ldrb	r5, [r3, #0]
10001aba:	2d01      	cmp	r5, #1
10001abc:	d015      	beq.n	10001aea <__aeabi_double_init+0x36>
10001abe:	dd10      	ble.n	10001ae2 <__aeabi_double_init+0x2e>
10001ac0:	4827      	ldr	r0, [pc, #156]	; (10001b60 <__aeabi_double_init+0xac>)
10001ac2:	f7ff ffab 	bl	10001a1c <rom_data_lookup>
10001ac6:	4c27      	ldr	r4, [pc, #156]	; (10001b64 <__aeabi_double_init+0xb0>)
10001ac8:	0001      	movs	r1, r0
10001aca:	2280      	movs	r2, #128	; 0x80
10001acc:	0020      	movs	r0, r4
10001ace:	f000 f8ed 	bl	10001cac <__wrap___aeabi_memcpy>
10001ad2:	2d02      	cmp	r5, #2
10001ad4:	d006      	beq.n	10001ae4 <__aeabi_double_init+0x30>
10001ad6:	4824      	ldr	r0, [pc, #144]	; (10001b68 <__aeabi_double_init+0xb4>)
10001ad8:	f7ff ff98 	bl	10001a0c <rom_func_lookup>
10001adc:	4b23      	ldr	r3, [pc, #140]	; (10001b6c <__aeabi_double_init+0xb8>)
10001ade:	6018      	str	r0, [r3, #0]
10001ae0:	bd70      	pop	{r4, r5, r6, pc}
10001ae2:	4c20      	ldr	r4, [pc, #128]	; (10001b64 <__aeabi_double_init+0xb0>)
10001ae4:	4a22      	ldr	r2, [pc, #136]	; (10001b70 <__aeabi_double_init+0xbc>)
10001ae6:	64a2      	str	r2, [r4, #72]	; 0x48
10001ae8:	e7f5      	b.n	10001ad6 <__aeabi_double_init+0x22>
10001aea:	002e      	movs	r6, r5
10001aec:	4c1d      	ldr	r4, [pc, #116]	; (10001b64 <__aeabi_double_init+0xb0>)
10001aee:	4a20      	ldr	r2, [pc, #128]	; (10001b70 <__aeabi_double_init+0xbc>)
10001af0:	08a3      	lsrs	r3, r4, #2
10001af2:	425b      	negs	r3, r3
10001af4:	401e      	ands	r6, r3
10001af6:	421d      	tst	r5, r3
10001af8:	d02f      	beq.n	10001b5a <__aeabi_double_init+0xa6>
10001afa:	0033      	movs	r3, r6
10001afc:	6022      	str	r2, [r4, #0]
10001afe:	2020      	movs	r0, #32
10001b00:	00b1      	lsls	r1, r6, #2
10001b02:	1861      	adds	r1, r4, r1
10001b04:	1b80      	subs	r0, r0, r6
10001b06:	600a      	str	r2, [r1, #0]
10001b08:	604a      	str	r2, [r1, #4]
10001b0a:	608a      	str	r2, [r1, #8]
10001b0c:	60ca      	str	r2, [r1, #12]
10001b0e:	610a      	str	r2, [r1, #16]
10001b10:	614a      	str	r2, [r1, #20]
10001b12:	618a      	str	r2, [r1, #24]
10001b14:	61ca      	str	r2, [r1, #28]
10001b16:	620a      	str	r2, [r1, #32]
10001b18:	624a      	str	r2, [r1, #36]	; 0x24
10001b1a:	628a      	str	r2, [r1, #40]	; 0x28
10001b1c:	62ca      	str	r2, [r1, #44]	; 0x2c
10001b1e:	630a      	str	r2, [r1, #48]	; 0x30
10001b20:	634a      	str	r2, [r1, #52]	; 0x34
10001b22:	638a      	str	r2, [r1, #56]	; 0x38
10001b24:	63ca      	str	r2, [r1, #60]	; 0x3c
10001b26:	640a      	str	r2, [r1, #64]	; 0x40
10001b28:	644a      	str	r2, [r1, #68]	; 0x44
10001b2a:	648a      	str	r2, [r1, #72]	; 0x48
10001b2c:	64ca      	str	r2, [r1, #76]	; 0x4c
10001b2e:	650a      	str	r2, [r1, #80]	; 0x50
10001b30:	654a      	str	r2, [r1, #84]	; 0x54
10001b32:	658a      	str	r2, [r1, #88]	; 0x58
10001b34:	65ca      	str	r2, [r1, #92]	; 0x5c
10001b36:	660a      	str	r2, [r1, #96]	; 0x60
10001b38:	664a      	str	r2, [r1, #100]	; 0x64
10001b3a:	668a      	str	r2, [r1, #104]	; 0x68
10001b3c:	66ca      	str	r2, [r1, #108]	; 0x6c
10001b3e:	670a      	str	r2, [r1, #112]	; 0x70
10001b40:	674a      	str	r2, [r1, #116]	; 0x74
10001b42:	0840      	lsrs	r0, r0, #1
10001b44:	2810      	cmp	r0, #16
10001b46:	d103      	bne.n	10001b50 <__aeabi_double_init+0x9c>
10001b48:	678a      	str	r2, [r1, #120]	; 0x78
10001b4a:	67ca      	str	r2, [r1, #124]	; 0x7c
10001b4c:	64a2      	str	r2, [r4, #72]	; 0x48
10001b4e:	e7c2      	b.n	10001ad6 <__aeabi_double_init+0x22>
10001b50:	331e      	adds	r3, #30
10001b52:	009b      	lsls	r3, r3, #2
10001b54:	50e2      	str	r2, [r4, r3]
10001b56:	64a2      	str	r2, [r4, #72]	; 0x48
10001b58:	e7bd      	b.n	10001ad6 <__aeabi_double_init+0x22>
10001b5a:	2300      	movs	r3, #0
10001b5c:	e7cf      	b.n	10001afe <__aeabi_double_init+0x4a>
10001b5e:	46c0      	nop			; (mov r8, r8)
10001b60:	00004453 	.word	0x00004453
10001b64:	20001c18 	.word	0x20001c18
10001b68:	0000334c 	.word	0x0000334c
10001b6c:	20001bfc 	.word	0x20001bfc
10001b70:	10001b75 	.word	0x10001b75

10001b74 <double_table_shim_on_use_helper>:
10001b74:	b507      	push	{r0, r1, r2, lr}
10001b76:	4660      	mov	r0, ip
10001b78:	8801      	ldrh	r1, [r0, #0]
10001b7a:	0a0a      	lsrs	r2, r1, #8
10001b7c:	3002      	adds	r0, #2
10001b7e:	2adf      	cmp	r2, #223	; 0xdf
10001b80:	d1fa      	bne.n	10001b78 <double_table_shim_on_use_helper+0x4>
10001b82:	b2c9      	uxtb	r1, r1
10001b84:	0882      	lsrs	r2, r0, #2
10001b86:	d304      	bcc.n	10001b92 <double_table_shim_on_use_helper+0x1e>
10001b88:	8802      	ldrh	r2, [r0, #0]
10001b8a:	8840      	ldrh	r0, [r0, #2]
10001b8c:	0400      	lsls	r0, r0, #16
10001b8e:	4310      	orrs	r0, r2
10001b90:	e000      	b.n	10001b94 <double_table_shim_on_use_helper+0x20>
10001b92:	6800      	ldr	r0, [r0, #0]
10001b94:	4a01      	ldr	r2, [pc, #4]	; (10001b9c <double_table_shim_on_use_helper+0x28>)
10001b96:	5050      	str	r0, [r2, r1]
10001b98:	9003      	str	r0, [sp, #12]
10001b9a:	bd07      	pop	{r0, r1, r2, pc}
10001b9c:	20001c18 	.word	0x20001c18

10001ba0 <__wrap___aeabi_lmul>:
10001ba0:	4351      	muls	r1, r2
10001ba2:	4343      	muls	r3, r0
10001ba4:	18c9      	adds	r1, r1, r3
10001ba6:	468c      	mov	ip, r1
10001ba8:	0c11      	lsrs	r1, r2, #16
10001baa:	b283      	uxth	r3, r0
10001bac:	434b      	muls	r3, r1
10001bae:	b410      	push	{r4}
10001bb0:	0c04      	lsrs	r4, r0, #16
10001bb2:	4361      	muls	r1, r4
10001bb4:	b292      	uxth	r2, r2
10001bb6:	b280      	uxth	r0, r0
10001bb8:	4350      	muls	r0, r2
10001bba:	4362      	muls	r2, r4
10001bbc:	041c      	lsls	r4, r3, #16
10001bbe:	0c1b      	lsrs	r3, r3, #16
10001bc0:	1900      	adds	r0, r0, r4
10001bc2:	bc10      	pop	{r4}
10001bc4:	4159      	adcs	r1, r3
10001bc6:	0413      	lsls	r3, r2, #16
10001bc8:	0c12      	lsrs	r2, r2, #16
10001bca:	18c0      	adds	r0, r0, r3
10001bcc:	4151      	adcs	r1, r2
10001bce:	4461      	add	r1, ip
10001bd0:	4770      	bx	lr
	...

10001bd4 <__aeabi_float_init>:
10001bd4:	2313      	movs	r3, #19
10001bd6:	b510      	push	{r4, lr}
10001bd8:	4812      	ldr	r0, [pc, #72]	; (10001c24 <__aeabi_float_init+0x50>)
10001bda:	781c      	ldrb	r4, [r3, #0]
10001bdc:	f7ff ff1e 	bl	10001a1c <rom_data_lookup>
10001be0:	0001      	movs	r1, r0
10001be2:	2c01      	cmp	r4, #1
10001be4:	d00a      	beq.n	10001bfc <__aeabi_float_init+0x28>
10001be6:	dd03      	ble.n	10001bf0 <__aeabi_float_init+0x1c>
10001be8:	2280      	movs	r2, #128	; 0x80
10001bea:	480f      	ldr	r0, [pc, #60]	; (10001c28 <__aeabi_float_init+0x54>)
10001bec:	f000 f85e 	bl	10001cac <__wrap___aeabi_memcpy>
10001bf0:	480e      	ldr	r0, [pc, #56]	; (10001c2c <__aeabi_float_init+0x58>)
10001bf2:	f7ff ff0b 	bl	10001a0c <rom_func_lookup>
10001bf6:	4b0e      	ldr	r3, [pc, #56]	; (10001c30 <__aeabi_float_init+0x5c>)
10001bf8:	6018      	str	r0, [r3, #0]
10001bfa:	bd10      	pop	{r4, pc}
10001bfc:	4c0a      	ldr	r4, [pc, #40]	; (10001c28 <__aeabi_float_init+0x54>)
10001bfe:	2254      	movs	r2, #84	; 0x54
10001c00:	0020      	movs	r0, r4
10001c02:	f000 f853 	bl	10001cac <__wrap___aeabi_memcpy>
10001c06:	4b0b      	ldr	r3, [pc, #44]	; (10001c34 <__aeabi_float_init+0x60>)
10001c08:	6563      	str	r3, [r4, #84]	; 0x54
10001c0a:	65a3      	str	r3, [r4, #88]	; 0x58
10001c0c:	65e3      	str	r3, [r4, #92]	; 0x5c
10001c0e:	6623      	str	r3, [r4, #96]	; 0x60
10001c10:	6663      	str	r3, [r4, #100]	; 0x64
10001c12:	66a3      	str	r3, [r4, #104]	; 0x68
10001c14:	66e3      	str	r3, [r4, #108]	; 0x6c
10001c16:	6723      	str	r3, [r4, #112]	; 0x70
10001c18:	6763      	str	r3, [r4, #116]	; 0x74
10001c1a:	67a3      	str	r3, [r4, #120]	; 0x78
10001c1c:	67e3      	str	r3, [r4, #124]	; 0x7c
10001c1e:	6223      	str	r3, [r4, #32]
10001c20:	61e3      	str	r3, [r4, #28]
10001c22:	e7e5      	b.n	10001bf0 <__aeabi_float_init+0x1c>
10001c24:	00004653 	.word	0x00004653
10001c28:	20001d18 	.word	0x20001d18
10001c2c:	0000334c 	.word	0x0000334c
10001c30:	20001bfc 	.word	0x20001bfc
10001c34:	10001c39 	.word	0x10001c39

10001c38 <float_table_shim_on_use_helper>:
10001c38:	b507      	push	{r0, r1, r2, lr}
10001c3a:	4660      	mov	r0, ip
10001c3c:	8801      	ldrh	r1, [r0, #0]
10001c3e:	0a0a      	lsrs	r2, r1, #8
10001c40:	3002      	adds	r0, #2
10001c42:	2adf      	cmp	r2, #223	; 0xdf
10001c44:	d1fa      	bne.n	10001c3c <float_table_shim_on_use_helper+0x4>
10001c46:	b2c9      	uxtb	r1, r1
10001c48:	0882      	lsrs	r2, r0, #2
10001c4a:	d304      	bcc.n	10001c56 <float_table_shim_on_use_helper+0x1e>
10001c4c:	8802      	ldrh	r2, [r0, #0]
10001c4e:	8840      	ldrh	r0, [r0, #2]
10001c50:	0400      	lsls	r0, r0, #16
10001c52:	4310      	orrs	r0, r2
10001c54:	e000      	b.n	10001c58 <float_table_shim_on_use_helper+0x20>
10001c56:	6800      	ldr	r0, [r0, #0]
10001c58:	4a01      	ldr	r2, [pc, #4]	; (10001c60 <float_table_shim_on_use_helper+0x28>)
10001c5a:	5050      	str	r0, [r2, r1]
10001c5c:	9003      	str	r0, [sp, #12]
10001c5e:	bd07      	pop	{r0, r1, r2, pc}
10001c60:	20001d18 	.word	0x20001d18

10001c64 <__wrap_malloc>:
10001c64:	b510      	push	{r4, lr}
10001c66:	0004      	movs	r4, r0
10001c68:	f001 fcb2 	bl	100035d0 <malloc>
10001c6c:	2800      	cmp	r0, #0
10001c6e:	d004      	beq.n	10001c7a <__wrap_malloc+0x16>
10001c70:	4b03      	ldr	r3, [pc, #12]	; (10001c80 <__wrap_malloc+0x1c>)
10001c72:	1904      	adds	r4, r0, r4
10001c74:	429c      	cmp	r4, r3
10001c76:	d800      	bhi.n	10001c7a <__wrap_malloc+0x16>
10001c78:	bd10      	pop	{r4, pc}
10001c7a:	4802      	ldr	r0, [pc, #8]	; (10001c84 <__wrap_malloc+0x20>)
10001c7c:	f7ff fb26 	bl	100012cc <panic>
10001c80:	20040000 	.word	0x20040000
10001c84:	10004254 	.word	0x10004254

10001c88 <__wrap_free>:
10001c88:	b510      	push	{r4, lr}
10001c8a:	f001 fcab 	bl	100035e4 <free>
10001c8e:	bd10      	pop	{r4, pc}

10001c90 <__aeabi_mem_init>:
10001c90:	4801      	ldr	r0, [pc, #4]	; (10001c98 <__aeabi_mem_init+0x8>)
10001c92:	2104      	movs	r1, #4
10001c94:	4b01      	ldr	r3, [pc, #4]	; (10001c9c <__aeabi_mem_init+0xc>)
10001c96:	4718      	bx	r3
10001c98:	20001170 	.word	0x20001170
10001c9c:	10001a2d 	.word	0x10001a2d

10001ca0 <__wrap_memset>:
10001ca0:	4b01      	ldr	r3, [pc, #4]	; (10001ca8 <__wrap_memset+0x8>)
10001ca2:	681b      	ldr	r3, [r3, #0]
10001ca4:	4718      	bx	r3
10001ca6:	0000      	.short	0x0000
10001ca8:	20001170 	.word	0x20001170

10001cac <__wrap___aeabi_memcpy>:
10001cac:	4b01      	ldr	r3, [pc, #4]	; (10001cb4 <__wrap___aeabi_memcpy+0x8>)
10001cae:	685b      	ldr	r3, [r3, #4]
10001cb0:	4718      	bx	r3
10001cb2:	0000      	.short	0x0000
10001cb4:	20001170 	.word	0x20001170

10001cb8 <_Znwj>:
10001cb8:	b510      	push	{r4, lr}
10001cba:	f7ff ffd3 	bl	10001c64 <__wrap_malloc>
10001cbe:	bd10      	pop	{r4, pc}

10001cc0 <_ZdlPv>:
10001cc0:	b510      	push	{r4, lr}
10001cc2:	f7ff ffe1 	bl	10001c88 <__wrap_free>
10001cc6:	bd10      	pop	{r4, pc}

10001cc8 <_ZdlPvj>:
10001cc8:	b510      	push	{r4, lr}
10001cca:	f7ff ffdd 	bl	10001c88 <__wrap_free>
10001cce:	bd10      	pop	{r4, pc}

10001cd0 <stdio_out_chars_no_crlf>:
10001cd0:	0003      	movs	r3, r0
10001cd2:	b510      	push	{r4, lr}
10001cd4:	0008      	movs	r0, r1
10001cd6:	681b      	ldr	r3, [r3, #0]
10001cd8:	0011      	movs	r1, r2
10001cda:	4798      	blx	r3
10001cdc:	bd10      	pop	{r4, pc}
10001cde:	46c0      	nop			; (mov r8, r8)

10001ce0 <stdio_out_chars_crlf>:
10001ce0:	b5f8      	push	{r3, r4, r5, r6, r7, lr}
10001ce2:	4647      	mov	r7, r8
10001ce4:	46ce      	mov	lr, r9
10001ce6:	b580      	push	{r7, lr}
10001ce8:	7c43      	ldrb	r3, [r0, #17]
10001cea:	0007      	movs	r7, r0
10001cec:	000d      	movs	r5, r1
10001cee:	0016      	movs	r6, r2
10001cf0:	2b00      	cmp	r3, #0
10001cf2:	d037      	beq.n	10001d64 <stdio_out_chars_crlf+0x84>
10001cf4:	2400      	movs	r4, #0
10001cf6:	2000      	movs	r0, #0
10001cf8:	2a00      	cmp	r2, #0
10001cfa:	dd1e      	ble.n	10001d3a <stdio_out_chars_crlf+0x5a>
10001cfc:	1e4b      	subs	r3, r1, #1
10001cfe:	4698      	mov	r8, r3
10001d00:	4b1b      	ldr	r3, [pc, #108]	; (10001d70 <stdio_out_chars_crlf+0x90>)
10001d02:	4699      	mov	r9, r3
10001d04:	2c00      	cmp	r4, #0
10001d06:	d02b      	beq.n	10001d60 <stdio_out_chars_crlf+0x80>
10001d08:	4643      	mov	r3, r8
10001d0a:	5d1b      	ldrb	r3, [r3, r4]
10001d0c:	3b0d      	subs	r3, #13
10001d0e:	425a      	negs	r2, r3
10001d10:	4153      	adcs	r3, r2
10001d12:	b2db      	uxtb	r3, r3
10001d14:	5d2a      	ldrb	r2, [r5, r4]
10001d16:	2a0a      	cmp	r2, #10
10001d18:	d013      	beq.n	10001d42 <stdio_out_chars_crlf+0x62>
10001d1a:	3401      	adds	r4, #1
10001d1c:	42a6      	cmp	r6, r4
10001d1e:	dcf1      	bgt.n	10001d04 <stdio_out_chars_crlf+0x24>
10001d20:	4286      	cmp	r6, r0
10001d22:	dd03      	ble.n	10001d2c <stdio_out_chars_crlf+0x4c>
10001d24:	1a31      	subs	r1, r6, r0
10001d26:	683b      	ldr	r3, [r7, #0]
10001d28:	1828      	adds	r0, r5, r0
10001d2a:	4798      	blx	r3
10001d2c:	19ad      	adds	r5, r5, r6
10001d2e:	3d01      	subs	r5, #1
10001d30:	782b      	ldrb	r3, [r5, #0]
10001d32:	3b0d      	subs	r3, #13
10001d34:	425a      	negs	r2, r3
10001d36:	4153      	adcs	r3, r2
10001d38:	743b      	strb	r3, [r7, #16]
10001d3a:	bc0c      	pop	{r2, r3}
10001d3c:	4690      	mov	r8, r2
10001d3e:	4699      	mov	r9, r3
10001d40:	bdf8      	pop	{r3, r4, r5, r6, r7, pc}
10001d42:	2b00      	cmp	r3, #0
10001d44:	d1e9      	bne.n	10001d1a <stdio_out_chars_crlf+0x3a>
10001d46:	42a0      	cmp	r0, r4
10001d48:	da03      	bge.n	10001d52 <stdio_out_chars_crlf+0x72>
10001d4a:	1a21      	subs	r1, r4, r0
10001d4c:	683b      	ldr	r3, [r7, #0]
10001d4e:	1828      	adds	r0, r5, r0
10001d50:	4798      	blx	r3
10001d52:	4648      	mov	r0, r9
10001d54:	2102      	movs	r1, #2
10001d56:	683b      	ldr	r3, [r7, #0]
10001d58:	3401      	adds	r4, #1
10001d5a:	4798      	blx	r3
10001d5c:	0020      	movs	r0, r4
10001d5e:	e7dd      	b.n	10001d1c <stdio_out_chars_crlf+0x3c>
10001d60:	7c3b      	ldrb	r3, [r7, #16]
10001d62:	e7d7      	b.n	10001d14 <stdio_out_chars_crlf+0x34>
10001d64:	6803      	ldr	r3, [r0, #0]
10001d66:	0011      	movs	r1, r2
10001d68:	0028      	movs	r0, r5
10001d6a:	4798      	blx	r3
10001d6c:	e7e5      	b.n	10001d3a <stdio_out_chars_crlf+0x5a>
10001d6e:	46c0      	nop			; (mov r8, r8)
10001d70:	100042c4 	.word	0x100042c4

10001d74 <stdio_put_string>:
10001d74:	b5f0      	push	{r4, r5, r6, r7, lr}
10001d76:	4657      	mov	r7, sl
10001d78:	464e      	mov	r6, r9
10001d7a:	4645      	mov	r5, r8
10001d7c:	46de      	mov	lr, fp
10001d7e:	001c      	movs	r4, r3
10001d80:	23d0      	movs	r3, #208	; 0xd0
10001d82:	b5e0      	push	{r5, r6, r7, lr}
10001d84:	061b      	lsls	r3, r3, #24
10001d86:	681f      	ldr	r7, [r3, #0]
10001d88:	4b35      	ldr	r3, [pc, #212]	; (10001e60 <stdio_put_string+0xec>)
10001d8a:	b083      	sub	sp, #12
10001d8c:	0006      	movs	r6, r0
10001d8e:	000d      	movs	r5, r1
10001d90:	0018      	movs	r0, r3
10001d92:	a901      	add	r1, sp, #4
10001d94:	4691      	mov	r9, r2
10001d96:	469a      	mov	sl, r3
10001d98:	f002 f9f2 	bl	10004180 <__mutex_try_enter_veneer>
10001d9c:	4680      	mov	r8, r0
10001d9e:	2800      	cmp	r0, #0
10001da0:	d108      	bne.n	10001db4 <stdio_put_string+0x40>
10001da2:	9b01      	ldr	r3, [sp, #4]
10001da4:	b27f      	sxtb	r7, r7
10001da6:	429f      	cmp	r7, r3
10001da8:	d004      	beq.n	10001db4 <stdio_put_string+0x40>
10001daa:	4650      	mov	r0, sl
10001dac:	f002 fa18 	bl	100041e0 <__mutex_enter_blocking_veneer>
10001db0:	2301      	movs	r3, #1
10001db2:	4698      	mov	r8, r3
10001db4:	1c6b      	adds	r3, r5, #1
10001db6:	d103      	bne.n	10001dc0 <stdio_put_string+0x4c>
10001db8:	0030      	movs	r0, r6
10001dba:	f002 f81d 	bl	10003df8 <strlen>
10001dbe:	0005      	movs	r5, r0
10001dc0:	2c00      	cmp	r4, #0
10001dc2:	d12a      	bne.n	10001e1a <stdio_put_string+0xa6>
10001dc4:	4f27      	ldr	r7, [pc, #156]	; (10001e64 <stdio_put_string+0xf0>)
10001dc6:	4b28      	ldr	r3, [pc, #160]	; (10001e68 <stdio_put_string+0xf4>)
10001dc8:	681c      	ldr	r4, [r3, #0]
10001dca:	2c00      	cmp	r4, #0
10001dcc:	d018      	beq.n	10001e00 <stdio_put_string+0x8c>
10001dce:	464b      	mov	r3, r9
10001dd0:	2b00      	cmp	r3, #0
10001dd2:	d124      	bne.n	10001e1e <stdio_put_string+0xaa>
10001dd4:	4b25      	ldr	r3, [pc, #148]	; (10001e6c <stdio_put_string+0xf8>)
10001dd6:	4699      	mov	r9, r3
10001dd8:	e002      	b.n	10001de0 <stdio_put_string+0x6c>
10001dda:	68e4      	ldr	r4, [r4, #12]
10001ddc:	2c00      	cmp	r4, #0
10001dde:	d00f      	beq.n	10001e00 <stdio_put_string+0x8c>
10001de0:	6823      	ldr	r3, [r4, #0]
10001de2:	2b00      	cmp	r3, #0
10001de4:	d0f9      	beq.n	10001dda <stdio_put_string+0x66>
10001de6:	464b      	mov	r3, r9
10001de8:	681b      	ldr	r3, [r3, #0]
10001dea:	2b00      	cmp	r3, #0
10001dec:	d001      	beq.n	10001df2 <stdio_put_string+0x7e>
10001dee:	42a3      	cmp	r3, r4
10001df0:	d1f3      	bne.n	10001dda <stdio_put_string+0x66>
10001df2:	0020      	movs	r0, r4
10001df4:	002a      	movs	r2, r5
10001df6:	0031      	movs	r1, r6
10001df8:	47b8      	blx	r7
10001dfa:	68e4      	ldr	r4, [r4, #12]
10001dfc:	2c00      	cmp	r4, #0
10001dfe:	d1ef      	bne.n	10001de0 <stdio_put_string+0x6c>
10001e00:	4643      	mov	r3, r8
10001e02:	2b00      	cmp	r3, #0
10001e04:	d128      	bne.n	10001e58 <stdio_put_string+0xe4>
10001e06:	1e68      	subs	r0, r5, #1
10001e08:	4185      	sbcs	r5, r0
10001e0a:	b2e8      	uxtb	r0, r5
10001e0c:	b003      	add	sp, #12
10001e0e:	bc3c      	pop	{r2, r3, r4, r5}
10001e10:	4690      	mov	r8, r2
10001e12:	4699      	mov	r9, r3
10001e14:	46a2      	mov	sl, r4
10001e16:	46ab      	mov	fp, r5
10001e18:	bdf0      	pop	{r4, r5, r6, r7, pc}
10001e1a:	4f15      	ldr	r7, [pc, #84]	; (10001e70 <stdio_put_string+0xfc>)
10001e1c:	e7d3      	b.n	10001dc6 <stdio_put_string+0x52>
10001e1e:	4b13      	ldr	r3, [pc, #76]	; (10001e6c <stdio_put_string+0xf8>)
10001e20:	4699      	mov	r9, r3
10001e22:	230a      	movs	r3, #10
10001e24:	469b      	mov	fp, r3
10001e26:	e002      	b.n	10001e2e <stdio_put_string+0xba>
10001e28:	68e4      	ldr	r4, [r4, #12]
10001e2a:	2c00      	cmp	r4, #0
10001e2c:	d0e8      	beq.n	10001e00 <stdio_put_string+0x8c>
10001e2e:	6823      	ldr	r3, [r4, #0]
10001e30:	2b00      	cmp	r3, #0
10001e32:	d0f9      	beq.n	10001e28 <stdio_put_string+0xb4>
10001e34:	464b      	mov	r3, r9
10001e36:	681b      	ldr	r3, [r3, #0]
10001e38:	2b00      	cmp	r3, #0
10001e3a:	d001      	beq.n	10001e40 <stdio_put_string+0xcc>
10001e3c:	42a3      	cmp	r3, r4
10001e3e:	d1f3      	bne.n	10001e28 <stdio_put_string+0xb4>
10001e40:	002a      	movs	r2, r5
10001e42:	0031      	movs	r1, r6
10001e44:	0020      	movs	r0, r4
10001e46:	47b8      	blx	r7
10001e48:	465a      	mov	r2, fp
10001e4a:	466b      	mov	r3, sp
10001e4c:	0020      	movs	r0, r4
10001e4e:	711a      	strb	r2, [r3, #4]
10001e50:	a901      	add	r1, sp, #4
10001e52:	2201      	movs	r2, #1
10001e54:	47b8      	blx	r7
10001e56:	e7e7      	b.n	10001e28 <stdio_put_string+0xb4>
10001e58:	4650      	mov	r0, sl
10001e5a:	f002 f959 	bl	10004110 <__mutex_exit_veneer>
10001e5e:	e7d2      	b.n	10001e06 <stdio_put_string+0x92>
10001e60:	200019c8 	.word	0x200019c8
10001e64:	10001ce1 	.word	0x10001ce1
10001e68:	20001bdc 	.word	0x20001bdc
10001e6c:	20001be0 	.word	0x20001be0
10001e70:	10001cd1 	.word	0x10001cd1

10001e74 <__wrap_putchar>:
10001e74:	b5f0      	push	{r4, r5, r6, r7, lr}
10001e76:	4647      	mov	r7, r8
10001e78:	46ce      	mov	lr, r9
10001e7a:	b580      	push	{r7, lr}
10001e7c:	b083      	sub	sp, #12
10001e7e:	466b      	mov	r3, sp
10001e80:	1cdf      	adds	r7, r3, #3
10001e82:	23d0      	movs	r3, #208	; 0xd0
10001e84:	7038      	strb	r0, [r7, #0]
10001e86:	061b      	lsls	r3, r3, #24
10001e88:	681c      	ldr	r4, [r3, #0]
10001e8a:	4b20      	ldr	r3, [pc, #128]	; (10001f0c <__wrap_putchar+0x98>)
10001e8c:	0006      	movs	r6, r0
10001e8e:	a901      	add	r1, sp, #4
10001e90:	0018      	movs	r0, r3
10001e92:	4698      	mov	r8, r3
10001e94:	f002 f974 	bl	10004180 <__mutex_try_enter_veneer>
10001e98:	1e05      	subs	r5, r0, #0
10001e9a:	d022      	beq.n	10001ee2 <__wrap_putchar+0x6e>
10001e9c:	4b1c      	ldr	r3, [pc, #112]	; (10001f10 <__wrap_putchar+0x9c>)
10001e9e:	681c      	ldr	r4, [r3, #0]
10001ea0:	2c00      	cmp	r4, #0
10001ea2:	d02a      	beq.n	10001efa <__wrap_putchar+0x86>
10001ea4:	4b1b      	ldr	r3, [pc, #108]	; (10001f14 <__wrap_putchar+0xa0>)
10001ea6:	4699      	mov	r9, r3
10001ea8:	e002      	b.n	10001eb0 <__wrap_putchar+0x3c>
10001eaa:	68e4      	ldr	r4, [r4, #12]
10001eac:	2c00      	cmp	r4, #0
10001eae:	d010      	beq.n	10001ed2 <__wrap_putchar+0x5e>
10001eb0:	6823      	ldr	r3, [r4, #0]
10001eb2:	2b00      	cmp	r3, #0
10001eb4:	d0f9      	beq.n	10001eaa <__wrap_putchar+0x36>
10001eb6:	464b      	mov	r3, r9
10001eb8:	681b      	ldr	r3, [r3, #0]
10001eba:	2b00      	cmp	r3, #0
10001ebc:	d001      	beq.n	10001ec2 <__wrap_putchar+0x4e>
10001ebe:	42a3      	cmp	r3, r4
10001ec0:	d1f3      	bne.n	10001eaa <__wrap_putchar+0x36>
10001ec2:	0020      	movs	r0, r4
10001ec4:	2201      	movs	r2, #1
10001ec6:	0039      	movs	r1, r7
10001ec8:	f7ff ff0a 	bl	10001ce0 <stdio_out_chars_crlf>
10001ecc:	68e4      	ldr	r4, [r4, #12]
10001ece:	2c00      	cmp	r4, #0
10001ed0:	d1ee      	bne.n	10001eb0 <__wrap_putchar+0x3c>
10001ed2:	2d00      	cmp	r5, #0
10001ed4:	d111      	bne.n	10001efa <__wrap_putchar+0x86>
10001ed6:	0030      	movs	r0, r6
10001ed8:	b003      	add	sp, #12
10001eda:	bc0c      	pop	{r2, r3}
10001edc:	4690      	mov	r8, r2
10001ede:	4699      	mov	r9, r3
10001ee0:	bdf0      	pop	{r4, r5, r6, r7, pc}
10001ee2:	9b01      	ldr	r3, [sp, #4]
10001ee4:	b264      	sxtb	r4, r4
10001ee6:	429c      	cmp	r4, r3
10001ee8:	d00b      	beq.n	10001f02 <__wrap_putchar+0x8e>
10001eea:	4640      	mov	r0, r8
10001eec:	f002 f978 	bl	100041e0 <__mutex_enter_blocking_veneer>
10001ef0:	4b07      	ldr	r3, [pc, #28]	; (10001f10 <__wrap_putchar+0x9c>)
10001ef2:	2501      	movs	r5, #1
10001ef4:	681c      	ldr	r4, [r3, #0]
10001ef6:	2c00      	cmp	r4, #0
10001ef8:	d1d4      	bne.n	10001ea4 <__wrap_putchar+0x30>
10001efa:	4640      	mov	r0, r8
10001efc:	f002 f908 	bl	10004110 <__mutex_exit_veneer>
10001f00:	e7e9      	b.n	10001ed6 <__wrap_putchar+0x62>
10001f02:	4b03      	ldr	r3, [pc, #12]	; (10001f10 <__wrap_putchar+0x9c>)
10001f04:	681c      	ldr	r4, [r3, #0]
10001f06:	2c00      	cmp	r4, #0
10001f08:	d1cc      	bne.n	10001ea4 <__wrap_putchar+0x30>
10001f0a:	e7e4      	b.n	10001ed6 <__wrap_putchar+0x62>
10001f0c:	200019c8 	.word	0x200019c8
10001f10:	20001bdc 	.word	0x20001bdc
10001f14:	20001be0 	.word	0x20001be0

10001f18 <__wrap_puts>:
10001f18:	b570      	push	{r4, r5, r6, lr}
10001f1a:	0004      	movs	r4, r0
10001f1c:	f001 ff6c 	bl	10003df8 <strlen>
10001f20:	2300      	movs	r3, #0
10001f22:	0001      	movs	r1, r0
10001f24:	0005      	movs	r5, r0
10001f26:	2201      	movs	r2, #1
10001f28:	0020      	movs	r0, r4
10001f2a:	f7ff ff23 	bl	10001d74 <stdio_put_string>
10001f2e:	4b08      	ldr	r3, [pc, #32]	; (10001f50 <__wrap_puts+0x38>)
10001f30:	681c      	ldr	r4, [r3, #0]
10001f32:	2c00      	cmp	r4, #0
10001f34:	d006      	beq.n	10001f44 <__wrap_puts+0x2c>
10001f36:	6863      	ldr	r3, [r4, #4]
10001f38:	2b00      	cmp	r3, #0
10001f3a:	d005      	beq.n	10001f48 <__wrap_puts+0x30>
10001f3c:	4798      	blx	r3
10001f3e:	68e4      	ldr	r4, [r4, #12]
10001f40:	2c00      	cmp	r4, #0
10001f42:	d1f8      	bne.n	10001f36 <__wrap_puts+0x1e>
10001f44:	0028      	movs	r0, r5
10001f46:	bd70      	pop	{r4, r5, r6, pc}
10001f48:	68e4      	ldr	r4, [r4, #12]
10001f4a:	2c00      	cmp	r4, #0
10001f4c:	d1f3      	bne.n	10001f36 <__wrap_puts+0x1e>
10001f4e:	e7f9      	b.n	10001f44 <__wrap_puts+0x2c>
10001f50:	20001bdc 	.word	0x20001bdc

10001f54 <_ZN8ROB14450C1ESt6vectorIiSaIiEE>:
10001f54:	c90c      	ldmia	r1!, {r2, r3}
10001f56:	1a9b      	subs	r3, r3, r2
10001f58:	b570      	push	{r4, r5, r6, lr}
10001f5a:	109b      	asrs	r3, r3, #2
10001f5c:	0004      	movs	r4, r0
10001f5e:	2b00      	cmp	r3, #0
10001f60:	d03c      	beq.n	10001fdc <_ZN8ROB14450C1ESt6vectorIiSaIiEE+0x88>
10001f62:	6810      	ldr	r0, [r2, #0]
10001f64:	6020      	str	r0, [r4, #0]
10001f66:	2b01      	cmp	r3, #1
10001f68:	d947      	bls.n	10001ffa <_ZN8ROB14450C1ESt6vectorIiSaIiEE+0xa6>
10001f6a:	6851      	ldr	r1, [r2, #4]
10001f6c:	6061      	str	r1, [r4, #4]
10001f6e:	2b02      	cmp	r3, #2
10001f70:	d03e      	beq.n	10001ff0 <_ZN8ROB14450C1ESt6vectorIiSaIiEE+0x9c>
10001f72:	6891      	ldr	r1, [r2, #8]
10001f74:	60a1      	str	r1, [r4, #8]
10001f76:	2b03      	cmp	r3, #3
10001f78:	d035      	beq.n	10001fe6 <_ZN8ROB14450C1ESt6vectorIiSaIiEE+0x92>
10001f7a:	2501      	movs	r5, #1
10001f7c:	68d3      	ldr	r3, [r2, #12]
10001f7e:	26d0      	movs	r6, #208	; 0xd0
10001f80:	60e3      	str	r3, [r4, #12]
10001f82:	f7fe fa67 	bl	10000454 <gpio_init>
10001f86:	002b      	movs	r3, r5
10001f88:	6822      	ldr	r2, [r4, #0]
10001f8a:	0636      	lsls	r6, r6, #24
10001f8c:	4093      	lsls	r3, r2
10001f8e:	68a0      	ldr	r0, [r4, #8]
10001f90:	6273      	str	r3, [r6, #36]	; 0x24
10001f92:	f7fe fa5f 	bl	10000454 <gpio_init>
10001f96:	002b      	movs	r3, r5
10001f98:	68a2      	ldr	r2, [r4, #8]
10001f9a:	68e0      	ldr	r0, [r4, #12]
10001f9c:	4093      	lsls	r3, r2
10001f9e:	6273      	str	r3, [r6, #36]	; 0x24
10001fa0:	f7fe fa58 	bl	10000454 <gpio_init>
10001fa4:	002b      	movs	r3, r5
10001fa6:	68e2      	ldr	r2, [r4, #12]
10001fa8:	6860      	ldr	r0, [r4, #4]
10001faa:	4093      	lsls	r3, r2
10001fac:	2104      	movs	r1, #4
10001fae:	6273      	str	r3, [r6, #36]	; 0x24
10001fb0:	f7fe fa38 	bl	10000424 <gpio_set_function>
10001fb4:	6861      	ldr	r1, [r4, #4]
10001fb6:	0020      	movs	r0, r4
10001fb8:	070a      	lsls	r2, r1, #28
10001fba:	0f52      	lsrs	r2, r2, #29
10001fbc:	0093      	lsls	r3, r2, #2
10001fbe:	6122      	str	r2, [r4, #16]
10001fc0:	189b      	adds	r3, r3, r2
10001fc2:	4a10      	ldr	r2, [pc, #64]	; (10002004 <_ZN8ROB14450C1ESt6vectorIiSaIiEE+0xb0>)
10001fc4:	009b      	lsls	r3, r3, #2
10001fc6:	4694      	mov	ip, r2
10001fc8:	4463      	add	r3, ip
10001fca:	681a      	ldr	r2, [r3, #0]
10001fcc:	4029      	ands	r1, r5
10001fce:	4395      	bics	r5, r2
10001fd0:	2280      	movs	r2, #128	; 0x80
10001fd2:	0152      	lsls	r2, r2, #5
10001fd4:	4313      	orrs	r3, r2
10001fd6:	601d      	str	r5, [r3, #0]
10001fd8:	6161      	str	r1, [r4, #20]
10001fda:	bd70      	pop	{r4, r5, r6, pc}
10001fdc:	2200      	movs	r2, #0
10001fde:	480a      	ldr	r0, [pc, #40]	; (10002008 <_ZN8ROB14450C1ESt6vectorIiSaIiEE+0xb4>)
10001fe0:	0011      	movs	r1, r2
10001fe2:	f000 f8cf 	bl	10002184 <_ZSt24__throw_out_of_range_fmtPKcz>
10001fe6:	2203      	movs	r2, #3
10001fe8:	4807      	ldr	r0, [pc, #28]	; (10002008 <_ZN8ROB14450C1ESt6vectorIiSaIiEE+0xb4>)
10001fea:	0011      	movs	r1, r2
10001fec:	f000 f8ca 	bl	10002184 <_ZSt24__throw_out_of_range_fmtPKcz>
10001ff0:	2202      	movs	r2, #2
10001ff2:	4805      	ldr	r0, [pc, #20]	; (10002008 <_ZN8ROB14450C1ESt6vectorIiSaIiEE+0xb4>)
10001ff4:	0011      	movs	r1, r2
10001ff6:	f000 f8c5 	bl	10002184 <_ZSt24__throw_out_of_range_fmtPKcz>
10001ffa:	2201      	movs	r2, #1
10001ffc:	4802      	ldr	r0, [pc, #8]	; (10002008 <_ZN8ROB14450C1ESt6vectorIiSaIiEE+0xb4>)
10001ffe:	0011      	movs	r1, r2
10002000:	f000 f8c0 	bl	10002184 <_ZSt24__throw_out_of_range_fmtPKcz>
10002004:	40050000 	.word	0x40050000
10002008:	100042c8 	.word	0x100042c8

1000200c <_ZN8ROB144504initEv>:
1000200c:	2301      	movs	r3, #1
1000200e:	6802      	ldr	r2, [r0, #0]
10002010:	2102      	movs	r1, #2
10002012:	4093      	lsls	r3, r2
10002014:	22d0      	movs	r2, #208	; 0xd0
10002016:	0612      	lsls	r2, r2, #24
10002018:	6153      	str	r3, [r2, #20]
1000201a:	6902      	ldr	r2, [r0, #16]
1000201c:	0093      	lsls	r3, r2, #2
1000201e:	189b      	adds	r3, r3, r2
10002020:	4a06      	ldr	r2, [pc, #24]	; (1000203c <_ZN8ROB144504initEv+0x30>)
10002022:	009b      	lsls	r3, r3, #2
10002024:	4694      	mov	ip, r2
10002026:	4a06      	ldr	r2, [pc, #24]	; (10002040 <_ZN8ROB144504initEv+0x34>)
10002028:	4463      	add	r3, ip
1000202a:	611a      	str	r2, [r3, #16]
1000202c:	681a      	ldr	r2, [r3, #0]
1000202e:	4011      	ands	r1, r2
10002030:	2280      	movs	r2, #128	; 0x80
10002032:	0152      	lsls	r2, r2, #5
10002034:	4313      	orrs	r3, r2
10002036:	6019      	str	r1, [r3, #0]
10002038:	4770      	bx	lr
1000203a:	46c0      	nop			; (mov r8, r8)
1000203c:	40050000 	.word	0x40050000
10002040:	000030d4 	.word	0x000030d4

10002044 <_ZN8ROB144505driveEi>:
10002044:	2301      	movs	r3, #1
10002046:	b510      	push	{r4, lr}
10002048:	001c      	movs	r4, r3
1000204a:	6882      	ldr	r2, [r0, #8]
1000204c:	4094      	lsls	r4, r2
1000204e:	22d0      	movs	r2, #208	; 0xd0
10002050:	0612      	lsls	r2, r2, #24
10002052:	2900      	cmp	r1, #0
10002054:	dd21      	ble.n	1000209a <_ZN8ROB144505driveEi+0x56>
10002056:	6194      	str	r4, [r2, #24]
10002058:	68c4      	ldr	r4, [r0, #12]
1000205a:	40a3      	lsls	r3, r4
1000205c:	6153      	str	r3, [r2, #20]
1000205e:	6840      	ldr	r0, [r0, #4]
10002060:	0702      	lsls	r2, r0, #28
10002062:	0f52      	lsrs	r2, r2, #29
10002064:	0093      	lsls	r3, r2, #2
10002066:	189b      	adds	r3, r3, r2
10002068:	4a0e      	ldr	r2, [pc, #56]	; (100020a4 <_ZN8ROB144505driveEi+0x60>)
1000206a:	009b      	lsls	r3, r3, #2
1000206c:	4694      	mov	ip, r2
1000206e:	17ca      	asrs	r2, r1, #31
10002070:	1889      	adds	r1, r1, r2
10002072:	4051      	eors	r1, r2
10002074:	4a0c      	ldr	r2, [pc, #48]	; (100020a8 <_ZN8ROB144505driveEi+0x64>)
10002076:	4463      	add	r3, ip
10002078:	4291      	cmp	r1, r2
1000207a:	dd00      	ble.n	1000207e <_ZN8ROB144505driveEi+0x3a>
1000207c:	0011      	movs	r1, r2
1000207e:	07c2      	lsls	r2, r0, #31
10002080:	d408      	bmi.n	10002094 <_ZN8ROB144505driveEi+0x50>
10002082:	4a0a      	ldr	r2, [pc, #40]	; (100020ac <_ZN8ROB144505driveEi+0x68>)
10002084:	6818      	ldr	r0, [r3, #0]
10002086:	4041      	eors	r1, r0
10002088:	400a      	ands	r2, r1
1000208a:	2180      	movs	r1, #128	; 0x80
1000208c:	0149      	lsls	r1, r1, #5
1000208e:	430b      	orrs	r3, r1
10002090:	601a      	str	r2, [r3, #0]
10002092:	bd10      	pop	{r4, pc}
10002094:	4a06      	ldr	r2, [pc, #24]	; (100020b0 <_ZN8ROB144505driveEi+0x6c>)
10002096:	0409      	lsls	r1, r1, #16
10002098:	e7f4      	b.n	10002084 <_ZN8ROB144505driveEi+0x40>
1000209a:	6154      	str	r4, [r2, #20]
1000209c:	68c4      	ldr	r4, [r0, #12]
1000209e:	40a3      	lsls	r3, r4
100020a0:	6193      	str	r3, [r2, #24]
100020a2:	e7dc      	b.n	1000205e <_ZN8ROB144505driveEi+0x1a>
100020a4:	4005000c 	.word	0x4005000c
100020a8:	0000c350 	.word	0x0000c350
100020ac:	0000ffff 	.word	0x0000ffff
100020b0:	ffff0000 	.word	0xffff0000

100020b4 <_ZN8ROB144504stopEv>:
100020b4:	b510      	push	{r4, lr}
100020b6:	2401      	movs	r4, #1
100020b8:	0022      	movs	r2, r4
100020ba:	6883      	ldr	r3, [r0, #8]
100020bc:	6841      	ldr	r1, [r0, #4]
100020be:	409a      	lsls	r2, r3
100020c0:	23d0      	movs	r3, #208	; 0xd0
100020c2:	061b      	lsls	r3, r3, #24
100020c4:	619a      	str	r2, [r3, #24]
100020c6:	619a      	str	r2, [r3, #24]
100020c8:	070a      	lsls	r2, r1, #28
100020ca:	0f52      	lsrs	r2, r2, #29
100020cc:	0093      	lsls	r3, r2, #2
100020ce:	189b      	adds	r3, r3, r2
100020d0:	4a09      	ldr	r2, [pc, #36]	; (100020f8 <_ZN8ROB144504stopEv+0x44>)
100020d2:	009b      	lsls	r3, r3, #2
100020d4:	4694      	mov	ip, r2
100020d6:	20ff      	movs	r0, #255	; 0xff
100020d8:	4463      	add	r3, ip
100020da:	420c      	tst	r4, r1
100020dc:	d009      	beq.n	100020f2 <_ZN8ROB144504stopEv+0x3e>
100020de:	4907      	ldr	r1, [pc, #28]	; (100020fc <_ZN8ROB144504stopEv+0x48>)
100020e0:	0400      	lsls	r0, r0, #16
100020e2:	681a      	ldr	r2, [r3, #0]
100020e4:	4042      	eors	r2, r0
100020e6:	4011      	ands	r1, r2
100020e8:	2280      	movs	r2, #128	; 0x80
100020ea:	0152      	lsls	r2, r2, #5
100020ec:	4313      	orrs	r3, r2
100020ee:	6019      	str	r1, [r3, #0]
100020f0:	bd10      	pop	{r4, pc}
100020f2:	4903      	ldr	r1, [pc, #12]	; (10002100 <_ZN8ROB144504stopEv+0x4c>)
100020f4:	e7f5      	b.n	100020e2 <_ZN8ROB144504stopEv+0x2e>
100020f6:	46c0      	nop			; (mov r8, r8)
100020f8:	4005000c 	.word	0x4005000c
100020fc:	ffff0000 	.word	0xffff0000
10002100:	0000ffff 	.word	0x0000ffff

10002104 <_ZSt17__throw_bad_allocv>:
10002104:	2004      	movs	r0, #4
10002106:	b510      	push	{r4, lr}
10002108:	f000 f9ae 	bl	10002468 <__cxa_allocate_exception>
1000210c:	4b02      	ldr	r3, [pc, #8]	; (10002118 <_ZSt17__throw_bad_allocv+0x14>)
1000210e:	4a03      	ldr	r2, [pc, #12]	; (1000211c <_ZSt17__throw_bad_allocv+0x18>)
10002110:	4903      	ldr	r1, [pc, #12]	; (10002120 <_ZSt17__throw_bad_allocv+0x1c>)
10002112:	6003      	str	r3, [r0, #0]
10002114:	f000 fe94 	bl	10002e40 <__cxa_throw>
10002118:	100043c0 	.word	0x100043c0
1000211c:	10002369 	.word	0x10002369
10002120:	1000439c 	.word	0x1000439c

10002124 <_ZSt19__throw_logic_errorPKc>:
10002124:	b570      	push	{r4, r5, r6, lr}
10002126:	0005      	movs	r5, r0
10002128:	2008      	movs	r0, #8
1000212a:	f000 f99d 	bl	10002468 <__cxa_allocate_exception>
1000212e:	0029      	movs	r1, r5
10002130:	0004      	movs	r4, r0
10002132:	f000 ffeb 	bl	1000310c <_ZNSt11logic_errorC1EPKc>
10002136:	0020      	movs	r0, r4
10002138:	4a04      	ldr	r2, [pc, #16]	; (1000214c <_ZSt19__throw_logic_errorPKc+0x28>)
1000213a:	4905      	ldr	r1, [pc, #20]	; (10002150 <_ZSt19__throw_logic_errorPKc+0x2c>)
1000213c:	f000 fe80 	bl	10002e40 <__cxa_throw>
10002140:	0020      	movs	r0, r4
10002142:	f000 f9a7 	bl	10002494 <__cxa_free_exception>
10002146:	f000 f9cd 	bl	100024e4 <__cxa_end_cleanup>
1000214a:	46c0      	nop			; (mov r8, r8)
1000214c:	10003051 	.word	0x10003051
10002150:	1000452c 	.word	0x1000452c

10002154 <_ZSt20__throw_length_errorPKc>:
10002154:	b570      	push	{r4, r5, r6, lr}
10002156:	0005      	movs	r5, r0
10002158:	2008      	movs	r0, #8
1000215a:	f000 f985 	bl	10002468 <__cxa_allocate_exception>
1000215e:	0029      	movs	r1, r5
10002160:	0004      	movs	r4, r0
10002162:	f000 ffe5 	bl	10003130 <_ZNSt12length_errorC1EPKc>
10002166:	0020      	movs	r0, r4
10002168:	4a04      	ldr	r2, [pc, #16]	; (1000217c <_ZSt20__throw_length_errorPKc+0x28>)
1000216a:	4905      	ldr	r1, [pc, #20]	; (10002180 <_ZSt20__throw_length_errorPKc+0x2c>)
1000216c:	f000 fe68 	bl	10002e40 <__cxa_throw>
10002170:	0020      	movs	r0, r4
10002172:	f000 f98f 	bl	10002494 <__cxa_free_exception>
10002176:	f000 f9b5 	bl	100024e4 <__cxa_end_cleanup>
1000217a:	46c0      	nop			; (mov r8, r8)
1000217c:	100030a5 	.word	0x100030a5
10002180:	10004538 	.word	0x10004538

10002184 <_ZSt24__throw_out_of_range_fmtPKcz>:
10002184:	b40f      	push	{r0, r1, r2, r3}
10002186:	2320      	movs	r3, #32
10002188:	b5f0      	push	{r4, r5, r6, r7, lr}
1000218a:	b083      	sub	sp, #12
1000218c:	af00      	add	r7, sp, #0
1000218e:	18fc      	adds	r4, r7, r3
10002190:	cc20      	ldmia	r4!, {r5}
10002192:	0028      	movs	r0, r5
10002194:	f001 fe30 	bl	10003df8 <strlen>
10002198:	2380      	movs	r3, #128	; 0x80
1000219a:	009b      	lsls	r3, r3, #2
1000219c:	18c1      	adds	r1, r0, r3
1000219e:	4b10      	ldr	r3, [pc, #64]	; (100021e0 <_ZSt24__throw_out_of_range_fmtPKcz+0x5c>)
100021a0:	002a      	movs	r2, r5
100021a2:	469c      	mov	ip, r3
100021a4:	466b      	mov	r3, sp
100021a6:	4460      	add	r0, ip
100021a8:	08c0      	lsrs	r0, r0, #3
100021aa:	00c0      	lsls	r0, r0, #3
100021ac:	1a1b      	subs	r3, r3, r0
100021ae:	469d      	mov	sp, r3
100021b0:	466e      	mov	r6, sp
100021b2:	0023      	movs	r3, r4
100021b4:	0030      	movs	r0, r6
100021b6:	607c      	str	r4, [r7, #4]
100021b8:	f000 f87e 	bl	100022b8 <_ZN9__gnu_cxx15__snprintf_liteEPcjPKcSt9__va_list>
100021bc:	2008      	movs	r0, #8
100021be:	f000 f953 	bl	10002468 <__cxa_allocate_exception>
100021c2:	0031      	movs	r1, r6
100021c4:	0004      	movs	r4, r0
100021c6:	f000 ffbd 	bl	10003144 <_ZNSt12out_of_rangeC1EPKc>
100021ca:	0020      	movs	r0, r4
100021cc:	4a05      	ldr	r2, [pc, #20]	; (100021e4 <_ZSt24__throw_out_of_range_fmtPKcz+0x60>)
100021ce:	4906      	ldr	r1, [pc, #24]	; (100021e8 <_ZSt24__throw_out_of_range_fmtPKcz+0x64>)
100021d0:	f000 fe36 	bl	10002e40 <__cxa_throw>
100021d4:	0020      	movs	r0, r4
100021d6:	f000 f95d 	bl	10002494 <__cxa_free_exception>
100021da:	f000 f983 	bl	100024e4 <__cxa_end_cleanup>
100021de:	46c0      	nop			; (mov r8, r8)
100021e0:	00000207 	.word	0x00000207
100021e4:	100030d9 	.word	0x100030d9
100021e8:	10004544 	.word	0x10004544

100021ec <_ZN9__gnu_cxx26__throw_insufficient_spaceEPKcS1_>:
100021ec:	b5f0      	push	{r4, r5, r6, r7, lr}
100021ee:	0005      	movs	r5, r0
100021f0:	000c      	movs	r4, r1
100021f2:	b09d      	sub	sp, #116	; 0x74
100021f4:	af00      	add	r7, sp, #0
100021f6:	1b64      	subs	r4, r4, r5
100021f8:	2269      	movs	r2, #105	; 0x69
100021fa:	490f      	ldr	r1, [pc, #60]	; (10002238 <_ZN9__gnu_cxx26__throw_insufficient_spaceEPKcS1_+0x4c>)
100021fc:	1d38      	adds	r0, r7, #4
100021fe:	f7ff fd55 	bl	10001cac <__wrap___aeabi_memcpy>
10002202:	0023      	movs	r3, r4
10002204:	466a      	mov	r2, sp
10002206:	3370      	adds	r3, #112	; 0x70
10002208:	08db      	lsrs	r3, r3, #3
1000220a:	00db      	lsls	r3, r3, #3
1000220c:	1ad3      	subs	r3, r2, r3
1000220e:	469d      	mov	sp, r3
10002210:	466e      	mov	r6, sp
10002212:	2268      	movs	r2, #104	; 0x68
10002214:	1d39      	adds	r1, r7, #4
10002216:	0030      	movs	r0, r6
10002218:	f7ff fd48 	bl	10001cac <__wrap___aeabi_memcpy>
1000221c:	0030      	movs	r0, r6
1000221e:	0022      	movs	r2, r4
10002220:	0029      	movs	r1, r5
10002222:	3068      	adds	r0, #104	; 0x68
10002224:	f7ff fd42 	bl	10001cac <__wrap___aeabi_memcpy>
10002228:	2300      	movs	r3, #0
1000222a:	1934      	adds	r4, r6, r4
1000222c:	3468      	adds	r4, #104	; 0x68
1000222e:	0030      	movs	r0, r6
10002230:	7023      	strb	r3, [r4, #0]
10002232:	f7ff ff77 	bl	10002124 <_ZSt19__throw_logic_errorPKc>
10002236:	46c0      	nop			; (mov r8, r8)
10002238:	10004314 	.word	0x10004314

1000223c <_ZN9__gnu_cxx15__concat_size_tEPcjj>:
1000223c:	b5f0      	push	{r4, r5, r6, r7, lr}
1000223e:	4657      	mov	r7, sl
10002240:	4645      	mov	r5, r8
10002242:	46de      	mov	lr, fp
10002244:	464e      	mov	r6, r9
10002246:	b5e0      	push	{r5, r6, r7, lr}
10002248:	b083      	sub	sp, #12
1000224a:	af00      	add	r7, sp, #0
1000224c:	b084      	sub	sp, #16
1000224e:	46ea      	mov	sl, sp
10002250:	230c      	movs	r3, #12
10002252:	4453      	add	r3, sl
10002254:	4699      	mov	r9, r3
10002256:	001d      	movs	r5, r3
10002258:	4b16      	ldr	r3, [pc, #88]	; (100022b4 <_ZN9__gnu_cxx15__concat_size_tEPcjj+0x78>)
1000225a:	4683      	mov	fp, r0
1000225c:	0014      	movs	r4, r2
1000225e:	4698      	mov	r8, r3
10002260:	6079      	str	r1, [r7, #4]
10002262:	0020      	movs	r0, r4
10002264:	210a      	movs	r1, #10
10002266:	f7ff fbff 	bl	10001a68 <__wrap___aeabi_uidiv>
1000226a:	4643      	mov	r3, r8
1000226c:	5c5b      	ldrb	r3, [r3, r1]
1000226e:	3d01      	subs	r5, #1
10002270:	0020      	movs	r0, r4
10002272:	210a      	movs	r1, #10
10002274:	702b      	strb	r3, [r5, #0]
10002276:	f7ff fbf7 	bl	10001a68 <__wrap___aeabi_uidiv>
1000227a:	0026      	movs	r6, r4
1000227c:	0004      	movs	r4, r0
1000227e:	2e09      	cmp	r6, #9
10002280:	d8ef      	bhi.n	10002262 <_ZN9__gnu_cxx15__concat_size_tEPcjj+0x26>
10002282:	464b      	mov	r3, r9
10002284:	1b5d      	subs	r5, r3, r5
10002286:	687b      	ldr	r3, [r7, #4]
10002288:	429d      	cmp	r5, r3
1000228a:	d80f      	bhi.n	100022ac <_ZN9__gnu_cxx15__concat_size_tEPcjj+0x70>
1000228c:	4653      	mov	r3, sl
1000228e:	1b59      	subs	r1, r3, r5
10002290:	002a      	movs	r2, r5
10002292:	4658      	mov	r0, fp
10002294:	310c      	adds	r1, #12
10002296:	f7ff fd09 	bl	10001cac <__wrap___aeabi_memcpy>
1000229a:	0028      	movs	r0, r5
1000229c:	46bd      	mov	sp, r7
1000229e:	b003      	add	sp, #12
100022a0:	bc3c      	pop	{r2, r3, r4, r5}
100022a2:	4690      	mov	r8, r2
100022a4:	4699      	mov	r9, r3
100022a6:	46a2      	mov	sl, r4
100022a8:	46ab      	mov	fp, r5
100022aa:	bdf0      	pop	{r4, r5, r6, r7, pc}
100022ac:	2501      	movs	r5, #1
100022ae:	426d      	negs	r5, r5
100022b0:	e7f3      	b.n	1000229a <_ZN9__gnu_cxx15__concat_size_tEPcjj+0x5e>
100022b2:	46c0      	nop			; (mov r8, r8)
100022b4:	10004380 	.word	0x10004380

100022b8 <_ZN9__gnu_cxx15__snprintf_liteEPcjPKcSt9__va_list>:
100022b8:	b5f0      	push	{r4, r5, r6, r7, lr}
100022ba:	46c6      	mov	lr, r8
100022bc:	4680      	mov	r8, r0
100022be:	b500      	push	{lr}
100022c0:	0015      	movs	r5, r2
100022c2:	3901      	subs	r1, #1
100022c4:	7812      	ldrb	r2, [r2, #0]
100022c6:	4441      	add	r1, r8
100022c8:	000f      	movs	r7, r1
100022ca:	0004      	movs	r4, r0
100022cc:	2a00      	cmp	r2, #0
100022ce:	d045      	beq.n	1000235c <_ZN9__gnu_cxx15__snprintf_liteEPcjPKcSt9__va_list+0xa4>
100022d0:	4288      	cmp	r0, r1
100022d2:	d20a      	bcs.n	100022ea <_ZN9__gnu_cxx15__snprintf_liteEPcjPKcSt9__va_list+0x32>
100022d4:	2a25      	cmp	r2, #37	; 0x25
100022d6:	d00c      	beq.n	100022f2 <_ZN9__gnu_cxx15__snprintf_liteEPcjPKcSt9__va_list+0x3a>
100022d8:	782a      	ldrb	r2, [r5, #0]
100022da:	7022      	strb	r2, [r4, #0]
100022dc:	3501      	adds	r5, #1
100022de:	3401      	adds	r4, #1
100022e0:	782a      	ldrb	r2, [r5, #0]
100022e2:	2a00      	cmp	r2, #0
100022e4:	d01f      	beq.n	10002326 <_ZN9__gnu_cxx15__snprintf_liteEPcjPKcSt9__va_list+0x6e>
100022e6:	42bc      	cmp	r4, r7
100022e8:	d3f4      	bcc.n	100022d4 <_ZN9__gnu_cxx15__snprintf_liteEPcjPKcSt9__va_list+0x1c>
100022ea:	0021      	movs	r1, r4
100022ec:	4640      	mov	r0, r8
100022ee:	f7ff ff7d 	bl	100021ec <_ZN9__gnu_cxx26__throw_insufficient_spaceEPKcS1_>
100022f2:	786a      	ldrb	r2, [r5, #1]
100022f4:	2a73      	cmp	r2, #115	; 0x73
100022f6:	d01d      	beq.n	10002334 <_ZN9__gnu_cxx15__snprintf_liteEPcjPKcSt9__va_list+0x7c>
100022f8:	2a7a      	cmp	r2, #122	; 0x7a
100022fa:	d003      	beq.n	10002304 <_ZN9__gnu_cxx15__snprintf_liteEPcjPKcSt9__va_list+0x4c>
100022fc:	2a25      	cmp	r2, #37	; 0x25
100022fe:	d1eb      	bne.n	100022d8 <_ZN9__gnu_cxx15__snprintf_liteEPcjPKcSt9__va_list+0x20>
10002300:	3501      	adds	r5, #1
10002302:	e7ea      	b.n	100022da <_ZN9__gnu_cxx15__snprintf_liteEPcjPKcSt9__va_list+0x22>
10002304:	78aa      	ldrb	r2, [r5, #2]
10002306:	2a75      	cmp	r2, #117	; 0x75
10002308:	d1e6      	bne.n	100022d8 <_ZN9__gnu_cxx15__snprintf_liteEPcjPKcSt9__va_list+0x20>
1000230a:	001e      	movs	r6, r3
1000230c:	0020      	movs	r0, r4
1000230e:	ce04      	ldmia	r6!, {r2}
10002310:	1b39      	subs	r1, r7, r4
10002312:	f7ff ff93 	bl	1000223c <_ZN9__gnu_cxx15__concat_size_tEPcjj>
10002316:	2800      	cmp	r0, #0
10002318:	dde7      	ble.n	100022ea <_ZN9__gnu_cxx15__snprintf_liteEPcjPKcSt9__va_list+0x32>
1000231a:	78ea      	ldrb	r2, [r5, #3]
1000231c:	3503      	adds	r5, #3
1000231e:	0033      	movs	r3, r6
10002320:	1824      	adds	r4, r4, r0
10002322:	2a00      	cmp	r2, #0
10002324:	d1df      	bne.n	100022e6 <_ZN9__gnu_cxx15__snprintf_liteEPcjPKcSt9__va_list+0x2e>
10002326:	4643      	mov	r3, r8
10002328:	1ae0      	subs	r0, r4, r3
1000232a:	2300      	movs	r3, #0
1000232c:	7023      	strb	r3, [r4, #0]
1000232e:	bc04      	pop	{r2}
10002330:	4690      	mov	r8, r2
10002332:	bdf0      	pop	{r4, r5, r6, r7, pc}
10002334:	cb02      	ldmia	r3!, {r1}
10002336:	780e      	ldrb	r6, [r1, #0]
10002338:	2e00      	cmp	r6, #0
1000233a:	d00d      	beq.n	10002358 <_ZN9__gnu_cxx15__snprintf_liteEPcjPKcSt9__va_list+0xa0>
1000233c:	42a7      	cmp	r7, r4
1000233e:	d9d4      	bls.n	100022ea <_ZN9__gnu_cxx15__snprintf_liteEPcjPKcSt9__va_list+0x32>
10002340:	0022      	movs	r2, r4
10002342:	e001      	b.n	10002348 <_ZN9__gnu_cxx15__snprintf_liteEPcjPKcSt9__va_list+0x90>
10002344:	4297      	cmp	r7, r2
10002346:	d0d0      	beq.n	100022ea <_ZN9__gnu_cxx15__snprintf_liteEPcjPKcSt9__va_list+0x32>
10002348:	0010      	movs	r0, r2
1000234a:	3101      	adds	r1, #1
1000234c:	7006      	strb	r6, [r0, #0]
1000234e:	780e      	ldrb	r6, [r1, #0]
10002350:	3201      	adds	r2, #1
10002352:	0014      	movs	r4, r2
10002354:	2e00      	cmp	r6, #0
10002356:	d1f5      	bne.n	10002344 <_ZN9__gnu_cxx15__snprintf_liteEPcjPKcSt9__va_list+0x8c>
10002358:	3502      	adds	r5, #2
1000235a:	e7c1      	b.n	100022e0 <_ZN9__gnu_cxx15__snprintf_liteEPcjPKcSt9__va_list+0x28>
1000235c:	2000      	movs	r0, #0
1000235e:	e7e4      	b.n	1000232a <_ZN9__gnu_cxx15__snprintf_liteEPcjPKcSt9__va_list+0x72>

10002360 <_ZNKSt9bad_alloc4whatEv>:
10002360:	4800      	ldr	r0, [pc, #0]	; (10002364 <_ZNKSt9bad_alloc4whatEv+0x4>)
10002362:	4770      	bx	lr
10002364:	1000438c 	.word	0x1000438c

10002368 <_ZNSt9bad_allocD1Ev>:
10002368:	b510      	push	{r4, lr}
1000236a:	0004      	movs	r4, r0
1000236c:	4b03      	ldr	r3, [pc, #12]	; (1000237c <_ZNSt9bad_allocD1Ev+0x14>)
1000236e:	3308      	adds	r3, #8
10002370:	6003      	str	r3, [r0, #0]
10002372:	f000 f98d 	bl	10002690 <_ZNSt9exceptionD1Ev>
10002376:	0020      	movs	r0, r4
10002378:	bd10      	pop	{r4, pc}
1000237a:	46c0      	nop			; (mov r8, r8)
1000237c:	100043b8 	.word	0x100043b8

10002380 <_ZNSt9bad_allocD0Ev>:
10002380:	b510      	push	{r4, lr}
10002382:	0004      	movs	r4, r0
10002384:	4b05      	ldr	r3, [pc, #20]	; (1000239c <_ZNSt9bad_allocD0Ev+0x1c>)
10002386:	3308      	adds	r3, #8
10002388:	6003      	str	r3, [r0, #0]
1000238a:	f000 f981 	bl	10002690 <_ZNSt9exceptionD1Ev>
1000238e:	0020      	movs	r0, r4
10002390:	2104      	movs	r1, #4
10002392:	f7ff fc99 	bl	10001cc8 <_ZdlPvj>
10002396:	0020      	movs	r0, r4
10002398:	bd10      	pop	{r4, pc}
1000239a:	46c0      	nop			; (mov r8, r8)
1000239c:	100043b8 	.word	0x100043b8

100023a0 <_ZN12_GLOBAL__N_14pool4freeEPv.constprop.0>:
100023a0:	b570      	push	{r4, r5, r6, lr}
100023a2:	4c1c      	ldr	r4, [pc, #112]	; (10002414 <_ZN12_GLOBAL__N_14pool4freeEPv.constprop.0+0x74>)
100023a4:	3808      	subs	r0, #8
100023a6:	6863      	ldr	r3, [r4, #4]
100023a8:	2b00      	cmp	r3, #0
100023aa:	d027      	beq.n	100023fc <_ZN12_GLOBAL__N_14pool4freeEPv.constprop.0+0x5c>
100023ac:	6806      	ldr	r6, [r0, #0]
100023ae:	1985      	adds	r5, r0, r6
100023b0:	42ab      	cmp	r3, r5
100023b2:	d823      	bhi.n	100023fc <_ZN12_GLOBAL__N_14pool4freeEPv.constprop.0+0x5c>
100023b4:	d01d      	beq.n	100023f2 <_ZN12_GLOBAL__N_14pool4freeEPv.constprop.0+0x52>
100023b6:	685a      	ldr	r2, [r3, #4]
100023b8:	3404      	adds	r4, #4
100023ba:	2a00      	cmp	r2, #0
100023bc:	d106      	bne.n	100023cc <_ZN12_GLOBAL__N_14pool4freeEPv.constprop.0+0x2c>
100023be:	e00e      	b.n	100023de <_ZN12_GLOBAL__N_14pool4freeEPv.constprop.0+0x3e>
100023c0:	6851      	ldr	r1, [r2, #4]
100023c2:	1d1c      	adds	r4, r3, #4
100023c4:	2900      	cmp	r1, #0
100023c6:	d01f      	beq.n	10002408 <_ZN12_GLOBAL__N_14pool4freeEPv.constprop.0+0x68>
100023c8:	0013      	movs	r3, r2
100023ca:	000a      	movs	r2, r1
100023cc:	4295      	cmp	r5, r2
100023ce:	d3f7      	bcc.n	100023c0 <_ZN12_GLOBAL__N_14pool4freeEPv.constprop.0+0x20>
100023d0:	d104      	bne.n	100023dc <_ZN12_GLOBAL__N_14pool4freeEPv.constprop.0+0x3c>
100023d2:	682a      	ldr	r2, [r5, #0]
100023d4:	4694      	mov	ip, r2
100023d6:	686a      	ldr	r2, [r5, #4]
100023d8:	4466      	add	r6, ip
100023da:	605a      	str	r2, [r3, #4]
100023dc:	6823      	ldr	r3, [r4, #0]
100023de:	681a      	ldr	r2, [r3, #0]
100023e0:	1899      	adds	r1, r3, r2
100023e2:	4288      	cmp	r0, r1
100023e4:	d00d      	beq.n	10002402 <_ZN12_GLOBAL__N_14pool4freeEPv.constprop.0+0x62>
100023e6:	685b      	ldr	r3, [r3, #4]
100023e8:	6006      	str	r6, [r0, #0]
100023ea:	6043      	str	r3, [r0, #4]
100023ec:	6823      	ldr	r3, [r4, #0]
100023ee:	6058      	str	r0, [r3, #4]
100023f0:	e006      	b.n	10002400 <_ZN12_GLOBAL__N_14pool4freeEPv.constprop.0+0x60>
100023f2:	681a      	ldr	r2, [r3, #0]
100023f4:	685b      	ldr	r3, [r3, #4]
100023f6:	4694      	mov	ip, r2
100023f8:	4466      	add	r6, ip
100023fa:	6006      	str	r6, [r0, #0]
100023fc:	6043      	str	r3, [r0, #4]
100023fe:	6060      	str	r0, [r4, #4]
10002400:	bd70      	pop	{r4, r5, r6, pc}
10002402:	1996      	adds	r6, r2, r6
10002404:	601e      	str	r6, [r3, #0]
10002406:	e7fb      	b.n	10002400 <_ZN12_GLOBAL__N_14pool4freeEPv.constprop.0+0x60>
10002408:	685b      	ldr	r3, [r3, #4]
1000240a:	681a      	ldr	r2, [r3, #0]
1000240c:	1899      	adds	r1, r3, r2
1000240e:	4288      	cmp	r0, r1
10002410:	d1e9      	bne.n	100023e6 <_ZN12_GLOBAL__N_14pool4freeEPv.constprop.0+0x46>
10002412:	e7f6      	b.n	10002402 <_ZN12_GLOBAL__N_14pool4freeEPv.constprop.0+0x62>
10002414:	20001b44 	.word	0x20001b44

10002418 <_ZN12_GLOBAL__N_14pool8allocateEj.constprop.0>:
10002418:	0002      	movs	r2, r0
1000241a:	b510      	push	{r4, lr}
1000241c:	3208      	adds	r2, #8
1000241e:	3008      	adds	r0, #8
10002420:	d300      	bcc.n	10002424 <_ZN12_GLOBAL__N_14pool8allocateEj.constprop.0+0xc>
10002422:	2208      	movs	r2, #8
10002424:	2307      	movs	r3, #7
10002426:	490f      	ldr	r1, [pc, #60]	; (10002464 <_ZN12_GLOBAL__N_14pool8allocateEj.constprop.0+0x4c>)
10002428:	3207      	adds	r2, #7
1000242a:	6848      	ldr	r0, [r1, #4]
1000242c:	439a      	bics	r2, r3
1000242e:	2800      	cmp	r0, #0
10002430:	d013      	beq.n	1000245a <_ZN12_GLOBAL__N_14pool8allocateEj.constprop.0+0x42>
10002432:	3104      	adds	r1, #4
10002434:	e003      	b.n	1000243e <_ZN12_GLOBAL__N_14pool8allocateEj.constprop.0+0x26>
10002436:	1d01      	adds	r1, r0, #4
10002438:	6840      	ldr	r0, [r0, #4]
1000243a:	2800      	cmp	r0, #0
1000243c:	d00d      	beq.n	1000245a <_ZN12_GLOBAL__N_14pool8allocateEj.constprop.0+0x42>
1000243e:	6803      	ldr	r3, [r0, #0]
10002440:	429a      	cmp	r2, r3
10002442:	d8f8      	bhi.n	10002436 <_ZN12_GLOBAL__N_14pool8allocateEj.constprop.0+0x1e>
10002444:	1a9b      	subs	r3, r3, r2
10002446:	2b07      	cmp	r3, #7
10002448:	d908      	bls.n	1000245c <_ZN12_GLOBAL__N_14pool8allocateEj.constprop.0+0x44>
1000244a:	1884      	adds	r4, r0, r2
1000244c:	6840      	ldr	r0, [r0, #4]
1000244e:	6023      	str	r3, [r4, #0]
10002450:	6060      	str	r0, [r4, #4]
10002452:	6808      	ldr	r0, [r1, #0]
10002454:	6002      	str	r2, [r0, #0]
10002456:	600c      	str	r4, [r1, #0]
10002458:	3008      	adds	r0, #8
1000245a:	bd10      	pop	{r4, pc}
1000245c:	6843      	ldr	r3, [r0, #4]
1000245e:	3008      	adds	r0, #8
10002460:	600b      	str	r3, [r1, #0]
10002462:	e7fa      	b.n	1000245a <_ZN12_GLOBAL__N_14pool8allocateEj.constprop.0+0x42>
10002464:	20001b44 	.word	0x20001b44

10002468 <__cxa_allocate_exception>:
10002468:	b570      	push	{r4, r5, r6, lr}
1000246a:	3080      	adds	r0, #128	; 0x80
1000246c:	0005      	movs	r5, r0
1000246e:	f7ff fbf9 	bl	10001c64 <__wrap_malloc>
10002472:	1e04      	subs	r4, r0, #0
10002474:	d007      	beq.n	10002486 <__cxa_allocate_exception+0x1e>
10002476:	2280      	movs	r2, #128	; 0x80
10002478:	2100      	movs	r1, #0
1000247a:	0020      	movs	r0, r4
1000247c:	f7ff fc10 	bl	10001ca0 <__wrap_memset>
10002480:	0020      	movs	r0, r4
10002482:	3080      	adds	r0, #128	; 0x80
10002484:	bd70      	pop	{r4, r5, r6, pc}
10002486:	0028      	movs	r0, r5
10002488:	f7ff ffc6 	bl	10002418 <_ZN12_GLOBAL__N_14pool8allocateEj.constprop.0>
1000248c:	1e04      	subs	r4, r0, #0
1000248e:	d1f2      	bne.n	10002476 <__cxa_allocate_exception+0xe>
10002490:	f000 fc76 	bl	10002d80 <_ZSt9terminatev>

10002494 <__cxa_free_exception>:
10002494:	4a07      	ldr	r2, [pc, #28]	; (100024b4 <__cxa_free_exception+0x20>)
10002496:	3880      	subs	r0, #128	; 0x80
10002498:	6893      	ldr	r3, [r2, #8]
1000249a:	b510      	push	{r4, lr}
1000249c:	4298      	cmp	r0, r3
1000249e:	d903      	bls.n	100024a8 <__cxa_free_exception+0x14>
100024a0:	68d2      	ldr	r2, [r2, #12]
100024a2:	189b      	adds	r3, r3, r2
100024a4:	4298      	cmp	r0, r3
100024a6:	d302      	bcc.n	100024ae <__cxa_free_exception+0x1a>
100024a8:	f7ff fbee 	bl	10001c88 <__wrap_free>
100024ac:	bd10      	pop	{r4, pc}
100024ae:	f7ff ff77 	bl	100023a0 <_ZN12_GLOBAL__N_14pool4freeEPv.constprop.0>
100024b2:	e7fb      	b.n	100024ac <__cxa_free_exception+0x18>
100024b4:	20001b44 	.word	0x20001b44

100024b8 <_GLOBAL__sub_I__ZN9__gnu_cxx9__freeresEv>:
100024b8:	b570      	push	{r4, r5, r6, lr}
100024ba:	259e      	movs	r5, #158	; 0x9e
100024bc:	4c08      	ldr	r4, [pc, #32]	; (100024e0 <_GLOBAL__sub_I__ZN9__gnu_cxx9__freeresEv+0x28>)
100024be:	012d      	lsls	r5, r5, #4
100024c0:	0028      	movs	r0, r5
100024c2:	60e5      	str	r5, [r4, #12]
100024c4:	f7ff fbce 	bl	10001c64 <__wrap_malloc>
100024c8:	60a0      	str	r0, [r4, #8]
100024ca:	2800      	cmp	r0, #0
100024cc:	d004      	beq.n	100024d8 <_GLOBAL__sub_I__ZN9__gnu_cxx9__freeresEv+0x20>
100024ce:	2300      	movs	r3, #0
100024d0:	6060      	str	r0, [r4, #4]
100024d2:	6005      	str	r5, [r0, #0]
100024d4:	6043      	str	r3, [r0, #4]
100024d6:	bd70      	pop	{r4, r5, r6, pc}
100024d8:	60e0      	str	r0, [r4, #12]
100024da:	6060      	str	r0, [r4, #4]
100024dc:	e7fb      	b.n	100024d6 <_GLOBAL__sub_I__ZN9__gnu_cxx9__freeresEv+0x1e>
100024de:	46c0      	nop			; (mov r8, r8)
100024e0:	20001b44 	.word	0x20001b44

100024e4 <__cxa_end_cleanup>:
100024e4:	b41e      	push	{r1, r2, r3, r4}
100024e6:	f000 f89b 	bl	10002620 <__gnu_end_cleanup>
100024ea:	bc1e      	pop	{r1, r2, r3, r4}
100024ec:	f001 fe40 	bl	10004170 <___Unwind_Resume_veneer>

100024f0 <__cxa_type_match>:
100024f0:	b5f0      	push	{r4, r5, r6, r7, lr}
100024f2:	46c6      	mov	lr, r8
100024f4:	b500      	push	{lr}
100024f6:	001e      	movs	r6, r3
100024f8:	7803      	ldrb	r3, [r0, #0]
100024fa:	000c      	movs	r4, r1
100024fc:	b082      	sub	sp, #8
100024fe:	2b47      	cmp	r3, #71	; 0x47
10002500:	d01e      	beq.n	10002540 <__cxa_type_match+0x50>
10002502:	2300      	movs	r3, #0
10002504:	4d2c      	ldr	r5, [pc, #176]	; (100025b8 <__cxa_type_match+0xc8>)
10002506:	9301      	str	r3, [sp, #4]
10002508:	682b      	ldr	r3, [r5, #0]
1000250a:	0028      	movs	r0, r5
1000250c:	689b      	ldr	r3, [r3, #8]
1000250e:	4798      	blx	r3
10002510:	2701      	movs	r7, #1
10002512:	2800      	cmp	r0, #0
10002514:	d10f      	bne.n	10002536 <__cxa_type_match+0x46>
10002516:	6823      	ldr	r3, [r4, #0]
10002518:	0029      	movs	r1, r5
1000251a:	691b      	ldr	r3, [r3, #16]
1000251c:	0020      	movs	r0, r4
1000251e:	4698      	mov	r8, r3
10002520:	aa01      	add	r2, sp, #4
10002522:	2301      	movs	r3, #1
10002524:	47c0      	blx	r8
10002526:	2800      	cmp	r0, #0
10002528:	d130      	bne.n	1000258c <__cxa_type_match+0x9c>
1000252a:	2700      	movs	r7, #0
1000252c:	0038      	movs	r0, r7
1000252e:	b002      	add	sp, #8
10002530:	bc04      	pop	{r2}
10002532:	4690      	mov	r8, r2
10002534:	bdf0      	pop	{r4, r5, r6, r7, pc}
10002536:	9b01      	ldr	r3, [sp, #4]
10002538:	3701      	adds	r7, #1
1000253a:	681b      	ldr	r3, [r3, #0]
1000253c:	9301      	str	r3, [sp, #4]
1000253e:	e7ea      	b.n	10002516 <__cxa_type_match+0x26>
10002540:	7843      	ldrb	r3, [r0, #1]
10002542:	2b4e      	cmp	r3, #78	; 0x4e
10002544:	d1dd      	bne.n	10002502 <__cxa_type_match+0x12>
10002546:	7883      	ldrb	r3, [r0, #2]
10002548:	2b55      	cmp	r3, #85	; 0x55
1000254a:	d1da      	bne.n	10002502 <__cxa_type_match+0x12>
1000254c:	78c3      	ldrb	r3, [r0, #3]
1000254e:	2b43      	cmp	r3, #67	; 0x43
10002550:	d1d7      	bne.n	10002502 <__cxa_type_match+0x12>
10002552:	7903      	ldrb	r3, [r0, #4]
10002554:	2b46      	cmp	r3, #70	; 0x46
10002556:	d023      	beq.n	100025a0 <__cxa_type_match+0xb0>
10002558:	7903      	ldrb	r3, [r0, #4]
1000255a:	2b43      	cmp	r3, #67	; 0x43
1000255c:	d1d1      	bne.n	10002502 <__cxa_type_match+0x12>
1000255e:	7943      	ldrb	r3, [r0, #5]
10002560:	2b2b      	cmp	r3, #43	; 0x2b
10002562:	d1ce      	bne.n	10002502 <__cxa_type_match+0x12>
10002564:	7983      	ldrb	r3, [r0, #6]
10002566:	2b2b      	cmp	r3, #43	; 0x2b
10002568:	d1cb      	bne.n	10002502 <__cxa_type_match+0x12>
1000256a:	79c3      	ldrb	r3, [r0, #7]
1000256c:	2b01      	cmp	r3, #1
1000256e:	d8c8      	bhi.n	10002502 <__cxa_type_match+0x12>
10002570:	d00f      	beq.n	10002592 <__cxa_type_match+0xa2>
10002572:	0003      	movs	r3, r0
10002574:	3b20      	subs	r3, #32
10002576:	3058      	adds	r0, #88	; 0x58
10002578:	681d      	ldr	r5, [r3, #0]
1000257a:	9001      	str	r0, [sp, #4]
1000257c:	682b      	ldr	r3, [r5, #0]
1000257e:	0028      	movs	r0, r5
10002580:	689b      	ldr	r3, [r3, #8]
10002582:	4798      	blx	r3
10002584:	2701      	movs	r7, #1
10002586:	2800      	cmp	r0, #0
10002588:	d0c5      	beq.n	10002516 <__cxa_type_match+0x26>
1000258a:	e7d4      	b.n	10002536 <__cxa_type_match+0x46>
1000258c:	9b01      	ldr	r3, [sp, #4]
1000258e:	6033      	str	r3, [r6, #0]
10002590:	e7cc      	b.n	1000252c <__cxa_type_match+0x3c>
10002592:	3820      	subs	r0, #32
10002594:	6800      	ldr	r0, [r0, #0]
10002596:	0003      	movs	r3, r0
10002598:	3b78      	subs	r3, #120	; 0x78
1000259a:	681d      	ldr	r5, [r3, #0]
1000259c:	9001      	str	r0, [sp, #4]
1000259e:	e7ed      	b.n	1000257c <__cxa_type_match+0x8c>
100025a0:	7943      	ldrb	r3, [r0, #5]
100025a2:	2b4f      	cmp	r3, #79	; 0x4f
100025a4:	d1d8      	bne.n	10002558 <__cxa_type_match+0x68>
100025a6:	7983      	ldrb	r3, [r0, #6]
100025a8:	2b52      	cmp	r3, #82	; 0x52
100025aa:	d1d5      	bne.n	10002558 <__cxa_type_match+0x68>
100025ac:	79c3      	ldrb	r3, [r0, #7]
100025ae:	2b00      	cmp	r3, #0
100025b0:	d1d2      	bne.n	10002558 <__cxa_type_match+0x68>
100025b2:	4d02      	ldr	r5, [pc, #8]	; (100025bc <__cxa_type_match+0xcc>)
100025b4:	9301      	str	r3, [sp, #4]
100025b6:	e7a7      	b.n	10002508 <__cxa_type_match+0x18>
100025b8:	100043e8 	.word	0x100043e8
100025bc:	100043e0 	.word	0x100043e0

100025c0 <__cxa_begin_cleanup>:
100025c0:	b510      	push	{r4, lr}
100025c2:	0004      	movs	r4, r0
100025c4:	f000 f878 	bl	100026b8 <__cxa_get_globals>
100025c8:	0023      	movs	r3, r4
100025ca:	7822      	ldrb	r2, [r4, #0]
100025cc:	3b20      	subs	r3, #32
100025ce:	2a47      	cmp	r2, #71	; 0x47
100025d0:	d005      	beq.n	100025de <__cxa_begin_cleanup+0x1e>
100025d2:	6882      	ldr	r2, [r0, #8]
100025d4:	2a00      	cmp	r2, #0
100025d6:	d120      	bne.n	1000261a <__cxa_begin_cleanup+0x5a>
100025d8:	6083      	str	r3, [r0, #8]
100025da:	2001      	movs	r0, #1
100025dc:	bd10      	pop	{r4, pc}
100025de:	7862      	ldrb	r2, [r4, #1]
100025e0:	2a4e      	cmp	r2, #78	; 0x4e
100025e2:	d1f6      	bne.n	100025d2 <__cxa_begin_cleanup+0x12>
100025e4:	78a2      	ldrb	r2, [r4, #2]
100025e6:	2a55      	cmp	r2, #85	; 0x55
100025e8:	d1f3      	bne.n	100025d2 <__cxa_begin_cleanup+0x12>
100025ea:	78e2      	ldrb	r2, [r4, #3]
100025ec:	2a43      	cmp	r2, #67	; 0x43
100025ee:	d1f0      	bne.n	100025d2 <__cxa_begin_cleanup+0x12>
100025f0:	7922      	ldrb	r2, [r4, #4]
100025f2:	2a43      	cmp	r2, #67	; 0x43
100025f4:	d1ed      	bne.n	100025d2 <__cxa_begin_cleanup+0x12>
100025f6:	7962      	ldrb	r2, [r4, #5]
100025f8:	2a2b      	cmp	r2, #43	; 0x2b
100025fa:	d1ea      	bne.n	100025d2 <__cxa_begin_cleanup+0x12>
100025fc:	79a2      	ldrb	r2, [r4, #6]
100025fe:	2a2b      	cmp	r2, #43	; 0x2b
10002600:	d1e7      	bne.n	100025d2 <__cxa_begin_cleanup+0x12>
10002602:	79e2      	ldrb	r2, [r4, #7]
10002604:	2a01      	cmp	r2, #1
10002606:	d8e4      	bhi.n	100025d2 <__cxa_begin_cleanup+0x12>
10002608:	69da      	ldr	r2, [r3, #28]
1000260a:	3201      	adds	r2, #1
1000260c:	61da      	str	r2, [r3, #28]
1000260e:	2a01      	cmp	r2, #1
10002610:	d1e3      	bne.n	100025da <__cxa_begin_cleanup+0x1a>
10002612:	6882      	ldr	r2, [r0, #8]
10002614:	619a      	str	r2, [r3, #24]
10002616:	6083      	str	r3, [r0, #8]
10002618:	e7df      	b.n	100025da <__cxa_begin_cleanup+0x1a>
1000261a:	f000 fbb1 	bl	10002d80 <_ZSt9terminatev>
1000261e:	46c0      	nop			; (mov r8, r8)

10002620 <__gnu_end_cleanup>:
10002620:	b510      	push	{r4, lr}
10002622:	f000 f849 	bl	100026b8 <__cxa_get_globals>
10002626:	6883      	ldr	r3, [r0, #8]
10002628:	2b00      	cmp	r3, #0
1000262a:	d02e      	beq.n	1000268a <__gnu_end_cleanup+0x6a>
1000262c:	2220      	movs	r2, #32
1000262e:	5c9a      	ldrb	r2, [r3, r2]
10002630:	2a47      	cmp	r2, #71	; 0x47
10002632:	d004      	beq.n	1000263e <__gnu_end_cleanup+0x1e>
10002634:	2200      	movs	r2, #0
10002636:	6082      	str	r2, [r0, #8]
10002638:	3320      	adds	r3, #32
1000263a:	0018      	movs	r0, r3
1000263c:	bd10      	pop	{r4, pc}
1000263e:	3a26      	subs	r2, #38	; 0x26
10002640:	5c9a      	ldrb	r2, [r3, r2]
10002642:	2a4e      	cmp	r2, #78	; 0x4e
10002644:	d1f6      	bne.n	10002634 <__gnu_end_cleanup+0x14>
10002646:	3a2c      	subs	r2, #44	; 0x2c
10002648:	5c9a      	ldrb	r2, [r3, r2]
1000264a:	2a55      	cmp	r2, #85	; 0x55
1000264c:	d1f2      	bne.n	10002634 <__gnu_end_cleanup+0x14>
1000264e:	3a32      	subs	r2, #50	; 0x32
10002650:	5c9a      	ldrb	r2, [r3, r2]
10002652:	2a43      	cmp	r2, #67	; 0x43
10002654:	d1ee      	bne.n	10002634 <__gnu_end_cleanup+0x14>
10002656:	3a1f      	subs	r2, #31
10002658:	5c9a      	ldrb	r2, [r3, r2]
1000265a:	2a43      	cmp	r2, #67	; 0x43
1000265c:	d1ea      	bne.n	10002634 <__gnu_end_cleanup+0x14>
1000265e:	3a1e      	subs	r2, #30
10002660:	5c9a      	ldrb	r2, [r3, r2]
10002662:	2a2b      	cmp	r2, #43	; 0x2b
10002664:	d1e6      	bne.n	10002634 <__gnu_end_cleanup+0x14>
10002666:	3a05      	subs	r2, #5
10002668:	5c9a      	ldrb	r2, [r3, r2]
1000266a:	2a2b      	cmp	r2, #43	; 0x2b
1000266c:	d1e2      	bne.n	10002634 <__gnu_end_cleanup+0x14>
1000266e:	3a04      	subs	r2, #4
10002670:	5c9a      	ldrb	r2, [r3, r2]
10002672:	2a01      	cmp	r2, #1
10002674:	d8de      	bhi.n	10002634 <__gnu_end_cleanup+0x14>
10002676:	69da      	ldr	r2, [r3, #28]
10002678:	3a01      	subs	r2, #1
1000267a:	61da      	str	r2, [r3, #28]
1000267c:	2a00      	cmp	r2, #0
1000267e:	d1db      	bne.n	10002638 <__gnu_end_cleanup+0x18>
10002680:	699a      	ldr	r2, [r3, #24]
10002682:	6082      	str	r2, [r0, #8]
10002684:	2200      	movs	r2, #0
10002686:	619a      	str	r2, [r3, #24]
10002688:	e7d6      	b.n	10002638 <__gnu_end_cleanup+0x18>
1000268a:	f000 fb79 	bl	10002d80 <_ZSt9terminatev>
1000268e:	46c0      	nop			; (mov r8, r8)

10002690 <_ZNSt9exceptionD1Ev>:
10002690:	4770      	bx	lr
10002692:	46c0      	nop			; (mov r8, r8)

10002694 <_ZNSt13bad_exceptionD1Ev>:
10002694:	4770      	bx	lr
10002696:	46c0      	nop			; (mov r8, r8)

10002698 <_ZGTtNKSt13bad_exception4whatEv>:
10002698:	4800      	ldr	r0, [pc, #0]	; (1000269c <_ZGTtNKSt13bad_exception4whatEv+0x4>)
1000269a:	4770      	bx	lr
1000269c:	100043cc 	.word	0x100043cc

100026a0 <_ZNSt13bad_exceptionD0Ev>:
100026a0:	b510      	push	{r4, lr}
100026a2:	0004      	movs	r4, r0
100026a4:	2104      	movs	r1, #4
100026a6:	f7ff fb0f 	bl	10001cc8 <_ZdlPvj>
100026aa:	0020      	movs	r0, r4
100026ac:	bd10      	pop	{r4, pc}
100026ae:	46c0      	nop			; (mov r8, r8)

100026b0 <__cxa_get_globals_fast>:
100026b0:	4800      	ldr	r0, [pc, #0]	; (100026b4 <__cxa_get_globals_fast+0x4>)
100026b2:	4770      	bx	lr
100026b4:	20001b38 	.word	0x20001b38

100026b8 <__cxa_get_globals>:
100026b8:	4800      	ldr	r0, [pc, #0]	; (100026bc <__cxa_get_globals+0x4>)
100026ba:	4770      	bx	lr
100026bc:	20001b38 	.word	0x20001b38

100026c0 <_ZL28read_encoded_value_with_basehjPKhPj>:
100026c0:	b5f8      	push	{r3, r4, r5, r6, r7, lr}
100026c2:	46de      	mov	lr, fp
100026c4:	4645      	mov	r5, r8
100026c6:	4657      	mov	r7, sl
100026c8:	464e      	mov	r6, r9
100026ca:	468b      	mov	fp, r1
100026cc:	b5e0      	push	{r5, r6, r7, lr}
100026ce:	0005      	movs	r5, r0
100026d0:	2850      	cmp	r0, #80	; 0x50
100026d2:	d025      	beq.n	10002720 <_ZL28read_encoded_value_with_basehjPKhPj+0x60>
100026d4:	200f      	movs	r0, #15
100026d6:	4028      	ands	r0, r5
100026d8:	280c      	cmp	r0, #12
100026da:	d900      	bls.n	100026de <_ZL28read_encoded_value_with_basehjPKhPj+0x1e>
100026dc:	e076      	b.n	100027cc <_ZL28read_encoded_value_with_basehjPKhPj+0x10c>
100026de:	4c3c      	ldr	r4, [pc, #240]	; (100027d0 <_ZL28read_encoded_value_with_basehjPKhPj+0x110>)
100026e0:	0080      	lsls	r0, r0, #2
100026e2:	5820      	ldr	r0, [r4, r0]
100026e4:	4687      	mov	pc, r0
100026e6:	7850      	ldrb	r0, [r2, #1]
100026e8:	7814      	ldrb	r4, [r2, #0]
100026ea:	0200      	lsls	r0, r0, #8
100026ec:	4320      	orrs	r0, r4
100026ee:	7894      	ldrb	r4, [r2, #2]
100026f0:	0424      	lsls	r4, r4, #16
100026f2:	4320      	orrs	r0, r4
100026f4:	78d4      	ldrb	r4, [r2, #3]
100026f6:	0624      	lsls	r4, r4, #24
100026f8:	4304      	orrs	r4, r0
100026fa:	1d10      	adds	r0, r2, #4
100026fc:	2c00      	cmp	r4, #0
100026fe:	d008      	beq.n	10002712 <_ZL28read_encoded_value_with_basehjPKhPj+0x52>
10002700:	2670      	movs	r6, #112	; 0x70
10002702:	402e      	ands	r6, r5
10002704:	2e10      	cmp	r6, #16
10002706:	d100      	bne.n	1000270a <_ZL28read_encoded_value_with_basehjPKhPj+0x4a>
10002708:	4693      	mov	fp, r2
1000270a:	b26d      	sxtb	r5, r5
1000270c:	445c      	add	r4, fp
1000270e:	2d00      	cmp	r5, #0
10002710:	db0c      	blt.n	1000272c <_ZL28read_encoded_value_with_basehjPKhPj+0x6c>
10002712:	601c      	str	r4, [r3, #0]
10002714:	bc3c      	pop	{r2, r3, r4, r5}
10002716:	4690      	mov	r8, r2
10002718:	4699      	mov	r9, r3
1000271a:	46a2      	mov	sl, r4
1000271c:	46ab      	mov	fp, r5
1000271e:	bdf8      	pop	{r3, r4, r5, r6, r7, pc}
10002720:	2103      	movs	r1, #3
10002722:	3203      	adds	r2, #3
10002724:	438a      	bics	r2, r1
10002726:	0010      	movs	r0, r2
10002728:	c810      	ldmia	r0!, {r4}
1000272a:	e7f2      	b.n	10002712 <_ZL28read_encoded_value_with_basehjPKhPj+0x52>
1000272c:	6824      	ldr	r4, [r4, #0]
1000272e:	e7f0      	b.n	10002712 <_ZL28read_encoded_value_with_basehjPKhPj+0x52>
10002730:	7850      	ldrb	r0, [r2, #1]
10002732:	7814      	ldrb	r4, [r2, #0]
10002734:	0200      	lsls	r0, r0, #8
10002736:	4320      	orrs	r0, r4
10002738:	7894      	ldrb	r4, [r2, #2]
1000273a:	0424      	lsls	r4, r4, #16
1000273c:	4320      	orrs	r0, r4
1000273e:	78d4      	ldrb	r4, [r2, #3]
10002740:	0624      	lsls	r4, r4, #24
10002742:	4304      	orrs	r4, r0
10002744:	0010      	movs	r0, r2
10002746:	3008      	adds	r0, #8
10002748:	e7d8      	b.n	100026fc <_ZL28read_encoded_value_with_basehjPKhPj+0x3c>
1000274a:	7854      	ldrb	r4, [r2, #1]
1000274c:	7810      	ldrb	r0, [r2, #0]
1000274e:	0224      	lsls	r4, r4, #8
10002750:	4304      	orrs	r4, r0
10002752:	1c90      	adds	r0, r2, #2
10002754:	e7d2      	b.n	100026fc <_ZL28read_encoded_value_with_basehjPKhPj+0x3c>
10002756:	7854      	ldrb	r4, [r2, #1]
10002758:	7810      	ldrb	r0, [r2, #0]
1000275a:	0224      	lsls	r4, r4, #8
1000275c:	4304      	orrs	r4, r0
1000275e:	0424      	lsls	r4, r4, #16
10002760:	1424      	asrs	r4, r4, #16
10002762:	1c90      	adds	r0, r2, #2
10002764:	e7ca      	b.n	100026fc <_ZL28read_encoded_value_with_basehjPKhPj+0x3c>
10002766:	217f      	movs	r1, #127	; 0x7f
10002768:	4690      	mov	r8, r2
1000276a:	2400      	movs	r4, #0
1000276c:	2700      	movs	r7, #0
1000276e:	4689      	mov	r9, r1
10002770:	4646      	mov	r6, r8
10002772:	7831      	ldrb	r1, [r6, #0]
10002774:	1c70      	adds	r0, r6, #1
10002776:	464e      	mov	r6, r9
10002778:	400e      	ands	r6, r1
1000277a:	40be      	lsls	r6, r7
1000277c:	4334      	orrs	r4, r6
1000277e:	b24e      	sxtb	r6, r1
10002780:	4680      	mov	r8, r0
10002782:	3707      	adds	r7, #7
10002784:	2e00      	cmp	r6, #0
10002786:	dbf3      	blt.n	10002770 <_ZL28read_encoded_value_with_basehjPKhPj+0xb0>
10002788:	2f1f      	cmp	r7, #31
1000278a:	d8b7      	bhi.n	100026fc <_ZL28read_encoded_value_with_basehjPKhPj+0x3c>
1000278c:	0649      	lsls	r1, r1, #25
1000278e:	d5b5      	bpl.n	100026fc <_ZL28read_encoded_value_with_basehjPKhPj+0x3c>
10002790:	2601      	movs	r6, #1
10002792:	40be      	lsls	r6, r7
10002794:	4276      	negs	r6, r6
10002796:	4334      	orrs	r4, r6
10002798:	e7b2      	b.n	10002700 <_ZL28read_encoded_value_with_basehjPKhPj+0x40>
1000279a:	2100      	movs	r1, #0
1000279c:	4688      	mov	r8, r1
1000279e:	317f      	adds	r1, #127	; 0x7f
100027a0:	0017      	movs	r7, r2
100027a2:	2400      	movs	r4, #0
100027a4:	4689      	mov	r9, r1
100027a6:	003e      	movs	r6, r7
100027a8:	7831      	ldrb	r1, [r6, #0]
100027aa:	3701      	adds	r7, #1
100027ac:	468a      	mov	sl, r1
100027ae:	4649      	mov	r1, r9
100027b0:	4656      	mov	r6, sl
100027b2:	4031      	ands	r1, r6
100027b4:	4646      	mov	r6, r8
100027b6:	40b1      	lsls	r1, r6
100027b8:	430c      	orrs	r4, r1
100027ba:	2107      	movs	r1, #7
100027bc:	468c      	mov	ip, r1
100027be:	4651      	mov	r1, sl
100027c0:	b24e      	sxtb	r6, r1
100027c2:	0038      	movs	r0, r7
100027c4:	44e0      	add	r8, ip
100027c6:	2e00      	cmp	r6, #0
100027c8:	dbed      	blt.n	100027a6 <_ZL28read_encoded_value_with_basehjPKhPj+0xe6>
100027ca:	e797      	b.n	100026fc <_ZL28read_encoded_value_with_basehjPKhPj+0x3c>
100027cc:	f000 fef8 	bl	100035c0 <abort>
100027d0:	10004480 	.word	0x10004480

100027d4 <_ZL21base_of_encoded_valuehP15_Unwind_Context>:
100027d4:	0002      	movs	r2, r0
100027d6:	b510      	push	{r4, lr}
100027d8:	0008      	movs	r0, r1
100027da:	2aff      	cmp	r2, #255	; 0xff
100027dc:	d015      	beq.n	1000280a <_ZL21base_of_encoded_valuehP15_Unwind_Context+0x36>
100027de:	2370      	movs	r3, #112	; 0x70
100027e0:	4013      	ands	r3, r2
100027e2:	2b30      	cmp	r3, #48	; 0x30
100027e4:	d017      	beq.n	10002816 <_ZL21base_of_encoded_valuehP15_Unwind_Context+0x42>
100027e6:	d804      	bhi.n	100027f2 <_ZL21base_of_encoded_valuehP15_Unwind_Context+0x1e>
100027e8:	2b20      	cmp	r3, #32
100027ea:	d107      	bne.n	100027fc <_ZL21base_of_encoded_valuehP15_Unwind_Context+0x28>
100027ec:	f001 fc88 	bl	10004100 <___Unwind_GetTextRelBase_veneer>
100027f0:	e003      	b.n	100027fa <_ZL21base_of_encoded_valuehP15_Unwind_Context+0x26>
100027f2:	2b40      	cmp	r3, #64	; 0x40
100027f4:	d10b      	bne.n	1000280e <_ZL21base_of_encoded_valuehP15_Unwind_Context+0x3a>
100027f6:	f001 fcd3 	bl	100041a0 <___Unwind_GetRegionStart_veneer>
100027fa:	bd10      	pop	{r4, pc}
100027fc:	2b20      	cmp	r3, #32
100027fe:	d802      	bhi.n	10002806 <_ZL21base_of_encoded_valuehP15_Unwind_Context+0x32>
10002800:	2360      	movs	r3, #96	; 0x60
10002802:	4213      	tst	r3, r2
10002804:	d001      	beq.n	1000280a <_ZL21base_of_encoded_valuehP15_Unwind_Context+0x36>
10002806:	f000 fedb 	bl	100035c0 <abort>
1000280a:	2000      	movs	r0, #0
1000280c:	e7f5      	b.n	100027fa <_ZL21base_of_encoded_valuehP15_Unwind_Context+0x26>
1000280e:	2000      	movs	r0, #0
10002810:	2b50      	cmp	r3, #80	; 0x50
10002812:	d0f2      	beq.n	100027fa <_ZL21base_of_encoded_valuehP15_Unwind_Context+0x26>
10002814:	e7f7      	b.n	10002806 <_ZL21base_of_encoded_valuehP15_Unwind_Context+0x32>
10002816:	f001 fc9b 	bl	10004150 <___Unwind_GetDataRelBase_veneer>
1000281a:	e7ee      	b.n	100027fa <_ZL21base_of_encoded_valuehP15_Unwind_Context+0x26>

1000281c <_ZL17parse_lsda_headerP15_Unwind_ContextPKhP16lsda_header_info>:
1000281c:	b5f8      	push	{r3, r4, r5, r6, r7, lr}
1000281e:	0005      	movs	r5, r0
10002820:	000e      	movs	r6, r1
10002822:	0014      	movs	r4, r2
10002824:	2000      	movs	r0, #0
10002826:	2d00      	cmp	r5, #0
10002828:	d002      	beq.n	10002830 <_ZL17parse_lsda_headerP15_Unwind_ContextPKhP16lsda_header_info+0x14>
1000282a:	0028      	movs	r0, r5
1000282c:	f001 fcb8 	bl	100041a0 <___Unwind_GetRegionStart_veneer>
10002830:	6020      	str	r0, [r4, #0]
10002832:	1c77      	adds	r7, r6, #1
10002834:	7836      	ldrb	r6, [r6, #0]
10002836:	2eff      	cmp	r6, #255	; 0xff
10002838:	d129      	bne.n	1000288e <_ZL17parse_lsda_headerP15_Unwind_ContextPKhP16lsda_header_info+0x72>
1000283a:	6060      	str	r0, [r4, #4]
1000283c:	783b      	ldrb	r3, [r7, #0]
1000283e:	1c78      	adds	r0, r7, #1
10002840:	7523      	strb	r3, [r4, #20]
10002842:	2bff      	cmp	r3, #255	; 0xff
10002844:	d033      	beq.n	100028ae <_ZL17parse_lsda_headerP15_Unwind_ContextPKhP16lsda_header_info+0x92>
10002846:	2310      	movs	r3, #16
10002848:	2500      	movs	r5, #0
1000284a:	2100      	movs	r1, #0
1000284c:	267f      	movs	r6, #127	; 0x7f
1000284e:	7523      	strb	r3, [r4, #20]
10002850:	0032      	movs	r2, r6
10002852:	7803      	ldrb	r3, [r0, #0]
10002854:	3001      	adds	r0, #1
10002856:	401a      	ands	r2, r3
10002858:	408a      	lsls	r2, r1
1000285a:	b25b      	sxtb	r3, r3
1000285c:	4315      	orrs	r5, r2
1000285e:	3107      	adds	r1, #7
10002860:	2b00      	cmp	r3, #0
10002862:	dbf5      	blt.n	10002850 <_ZL17parse_lsda_headerP15_Unwind_ContextPKhP16lsda_header_info+0x34>
10002864:	1945      	adds	r5, r0, r5
10002866:	60e5      	str	r5, [r4, #12]
10002868:	2500      	movs	r5, #0
1000286a:	2200      	movs	r2, #0
1000286c:	267f      	movs	r6, #127	; 0x7f
1000286e:	7803      	ldrb	r3, [r0, #0]
10002870:	3001      	adds	r0, #1
10002872:	7563      	strb	r3, [r4, #21]
10002874:	0031      	movs	r1, r6
10002876:	7803      	ldrb	r3, [r0, #0]
10002878:	3001      	adds	r0, #1
1000287a:	4019      	ands	r1, r3
1000287c:	4091      	lsls	r1, r2
1000287e:	b25b      	sxtb	r3, r3
10002880:	430d      	orrs	r5, r1
10002882:	3207      	adds	r2, #7
10002884:	2b00      	cmp	r3, #0
10002886:	dbf5      	blt.n	10002874 <_ZL17parse_lsda_headerP15_Unwind_ContextPKhP16lsda_header_info+0x58>
10002888:	1945      	adds	r5, r0, r5
1000288a:	6125      	str	r5, [r4, #16]
1000288c:	bdf8      	pop	{r3, r4, r5, r6, r7, pc}
1000288e:	0029      	movs	r1, r5
10002890:	0030      	movs	r0, r6
10002892:	f7ff ff9f 	bl	100027d4 <_ZL21base_of_encoded_valuehP15_Unwind_Context>
10002896:	003a      	movs	r2, r7
10002898:	0001      	movs	r1, r0
1000289a:	1d23      	adds	r3, r4, #4
1000289c:	0030      	movs	r0, r6
1000289e:	f7ff ff0f 	bl	100026c0 <_ZL28read_encoded_value_with_basehjPKhPj>
100028a2:	0007      	movs	r7, r0
100028a4:	783b      	ldrb	r3, [r7, #0]
100028a6:	1c78      	adds	r0, r7, #1
100028a8:	7523      	strb	r3, [r4, #20]
100028aa:	2bff      	cmp	r3, #255	; 0xff
100028ac:	d1cb      	bne.n	10002846 <_ZL17parse_lsda_headerP15_Unwind_ContextPKhP16lsda_header_info+0x2a>
100028ae:	2300      	movs	r3, #0
100028b0:	60e3      	str	r3, [r4, #12]
100028b2:	e7d9      	b.n	10002868 <_ZL17parse_lsda_headerP15_Unwind_ContextPKhP16lsda_header_info+0x4c>

100028b4 <__gxx_personality_v0>:
100028b4:	b5f0      	push	{r4, r5, r6, r7, lr}
100028b6:	46de      	mov	lr, fp
100028b8:	4645      	mov	r5, r8
100028ba:	4657      	mov	r7, sl
100028bc:	464e      	mov	r6, r9
100028be:	2300      	movs	r3, #0
100028c0:	b5e0      	push	{r5, r6, r7, lr}
100028c2:	b093      	sub	sp, #76	; 0x4c
100028c4:	9308      	str	r3, [sp, #32]
100028c6:	3303      	adds	r3, #3
100028c8:	468b      	mov	fp, r1
100028ca:	4690      	mov	r8, r2
100028cc:	4003      	ands	r3, r0
100028ce:	2b01      	cmp	r3, #1
100028d0:	d100      	bne.n	100028d4 <__gxx_personality_v0+0x20>
100028d2:	e09f      	b.n	10002a14 <__gxx_personality_v0+0x160>
100028d4:	2b02      	cmp	r3, #2
100028d6:	d10f      	bne.n	100028f8 <__gxx_personality_v0+0x44>
100028d8:	4641      	mov	r1, r8
100028da:	4658      	mov	r0, fp
100028dc:	f001 fc28 	bl	10004130 <____gnu_unwind_frame_veneer>
100028e0:	2409      	movs	r4, #9
100028e2:	2800      	cmp	r0, #0
100028e4:	d100      	bne.n	100028e8 <__gxx_personality_v0+0x34>
100028e6:	2408      	movs	r4, #8
100028e8:	0020      	movs	r0, r4
100028ea:	b013      	add	sp, #76	; 0x4c
100028ec:	bc3c      	pop	{r2, r3, r4, r5}
100028ee:	4690      	mov	r8, r2
100028f0:	4699      	mov	r9, r3
100028f2:	46a2      	mov	sl, r4
100028f4:	46ab      	mov	fp, r5
100028f6:	bdf0      	pop	{r4, r5, r6, r7, pc}
100028f8:	2b00      	cmp	r3, #0
100028fa:	d000      	beq.n	100028fe <__gxx_personality_v0+0x4a>
100028fc:	e227      	b.n	10002d4e <__gxx_personality_v0+0x49a>
100028fe:	0703      	lsls	r3, r0, #28
10002900:	d4ea      	bmi.n	100028d8 <__gxx_personality_v0+0x24>
10002902:	2301      	movs	r3, #1
10002904:	ad0c      	add	r5, sp, #48	; 0x30
10002906:	9302      	str	r3, [sp, #8]
10002908:	465b      	mov	r3, fp
1000290a:	930c      	str	r3, [sp, #48]	; 0x30
1000290c:	2300      	movs	r3, #0
1000290e:	220c      	movs	r2, #12
10002910:	2100      	movs	r1, #0
10002912:	4640      	mov	r0, r8
10002914:	9500      	str	r5, [sp, #0]
10002916:	f001 fc03 	bl	10004120 <___Unwind_VRS_Set_veneer>
1000291a:	4640      	mov	r0, r8
1000291c:	f001 fc68 	bl	100041f0 <___Unwind_GetLanguageSpecificData_veneer>
10002920:	9003      	str	r0, [sp, #12]
10002922:	2800      	cmp	r0, #0
10002924:	d0d8      	beq.n	100028d8 <__gxx_personality_v0+0x24>
10002926:	002a      	movs	r2, r5
10002928:	9903      	ldr	r1, [sp, #12]
1000292a:	4640      	mov	r0, r8
1000292c:	f7ff ff76 	bl	1000281c <_ZL17parse_lsda_headerP15_Unwind_ContextPKhP16lsda_header_info>
10002930:	4641      	mov	r1, r8
10002932:	0006      	movs	r6, r0
10002934:	7d28      	ldrb	r0, [r5, #20]
10002936:	f7ff ff4d 	bl	100027d4 <_ZL21base_of_encoded_valuehP15_Unwind_Context>
1000293a:	ab0b      	add	r3, sp, #44	; 0x2c
1000293c:	60a8      	str	r0, [r5, #8]
1000293e:	220f      	movs	r2, #15
10002940:	9300      	str	r3, [sp, #0]
10002942:	469a      	mov	sl, r3
10002944:	2100      	movs	r1, #0
10002946:	2300      	movs	r3, #0
10002948:	4640      	mov	r0, r8
1000294a:	f001 fc31 	bl	100041b0 <___Unwind_VRS_Get_veneer>
1000294e:	2201      	movs	r2, #1
10002950:	9b0b      	ldr	r3, [sp, #44]	; 0x2c
10002952:	4393      	bics	r3, r2
10002954:	3b01      	subs	r3, #1
10002956:	4699      	mov	r9, r3
10002958:	692b      	ldr	r3, [r5, #16]
1000295a:	429e      	cmp	r6, r3
1000295c:	d26b      	bcs.n	10002a36 <__gxx_personality_v0+0x182>
1000295e:	277f      	movs	r7, #127	; 0x7f
10002960:	7d6c      	ldrb	r4, [r5, #21]
10002962:	2100      	movs	r1, #0
10002964:	0020      	movs	r0, r4
10002966:	f7ff ff35 	bl	100027d4 <_ZL21base_of_encoded_valuehP15_Unwind_Context>
1000296a:	0032      	movs	r2, r6
1000296c:	0001      	movs	r1, r0
1000296e:	ab09      	add	r3, sp, #36	; 0x24
10002970:	0020      	movs	r0, r4
10002972:	f7ff fea5 	bl	100026c0 <_ZL28read_encoded_value_with_basehjPKhPj>
10002976:	7d6c      	ldrb	r4, [r5, #21]
10002978:	0006      	movs	r6, r0
1000297a:	2100      	movs	r1, #0
1000297c:	0020      	movs	r0, r4
1000297e:	f7ff ff29 	bl	100027d4 <_ZL21base_of_encoded_valuehP15_Unwind_Context>
10002982:	0032      	movs	r2, r6
10002984:	0001      	movs	r1, r0
10002986:	ab0a      	add	r3, sp, #40	; 0x28
10002988:	0020      	movs	r0, r4
1000298a:	f7ff fe99 	bl	100026c0 <_ZL28read_encoded_value_with_basehjPKhPj>
1000298e:	7d6c      	ldrb	r4, [r5, #21]
10002990:	0006      	movs	r6, r0
10002992:	2100      	movs	r1, #0
10002994:	0020      	movs	r0, r4
10002996:	f7ff ff1d 	bl	100027d4 <_ZL21base_of_encoded_valuehP15_Unwind_Context>
1000299a:	4653      	mov	r3, sl
1000299c:	0001      	movs	r1, r0
1000299e:	0032      	movs	r2, r6
100029a0:	0020      	movs	r0, r4
100029a2:	f7ff fe8d 	bl	100026c0 <_ZL28read_encoded_value_with_basehjPKhPj>
100029a6:	2400      	movs	r4, #0
100029a8:	2100      	movs	r1, #0
100029aa:	0003      	movs	r3, r0
100029ac:	003a      	movs	r2, r7
100029ae:	781b      	ldrb	r3, [r3, #0]
100029b0:	3001      	adds	r0, #1
100029b2:	401a      	ands	r2, r3
100029b4:	408a      	lsls	r2, r1
100029b6:	b25b      	sxtb	r3, r3
100029b8:	0006      	movs	r6, r0
100029ba:	4314      	orrs	r4, r2
100029bc:	3107      	adds	r1, #7
100029be:	2b00      	cmp	r3, #0
100029c0:	dbf3      	blt.n	100029aa <__gxx_personality_v0+0xf6>
100029c2:	9a09      	ldr	r2, [sp, #36]	; 0x24
100029c4:	682b      	ldr	r3, [r5, #0]
100029c6:	4694      	mov	ip, r2
100029c8:	4463      	add	r3, ip
100029ca:	454b      	cmp	r3, r9
100029cc:	d919      	bls.n	10002a02 <__gxx_personality_v0+0x14e>
100029ce:	9b02      	ldr	r3, [sp, #8]
100029d0:	07db      	lsls	r3, r3, #31
100029d2:	d52a      	bpl.n	10002a2a <__gxx_personality_v0+0x176>
100029d4:	2300      	movs	r3, #0
100029d6:	2400      	movs	r4, #0
100029d8:	9304      	str	r3, [sp, #16]
100029da:	4653      	mov	r3, sl
100029dc:	220d      	movs	r2, #13
100029de:	9300      	str	r3, [sp, #0]
100029e0:	2100      	movs	r1, #0
100029e2:	2300      	movs	r3, #0
100029e4:	4640      	mov	r0, r8
100029e6:	9d08      	ldr	r5, [sp, #32]
100029e8:	f001 fbe2 	bl	100041b0 <___Unwind_VRS_Get_veneer>
100029ec:	465b      	mov	r3, fp
100029ee:	9a0b      	ldr	r2, [sp, #44]	; 0x2c
100029f0:	629c      	str	r4, [r3, #40]	; 0x28
100029f2:	621a      	str	r2, [r3, #32]
100029f4:	9a03      	ldr	r2, [sp, #12]
100029f6:	2406      	movs	r4, #6
100029f8:	62da      	str	r2, [r3, #44]	; 0x2c
100029fa:	9a04      	ldr	r2, [sp, #16]
100029fc:	625d      	str	r5, [r3, #36]	; 0x24
100029fe:	631a      	str	r2, [r3, #48]	; 0x30
10002a00:	e772      	b.n	100028e8 <__gxx_personality_v0+0x34>
10002a02:	9a0a      	ldr	r2, [sp, #40]	; 0x28
10002a04:	4694      	mov	ip, r2
10002a06:	4463      	add	r3, ip
10002a08:	454b      	cmp	r3, r9
10002a0a:	d874      	bhi.n	10002af6 <__gxx_personality_v0+0x242>
10002a0c:	692b      	ldr	r3, [r5, #16]
10002a0e:	4283      	cmp	r3, r0
10002a10:	d8a6      	bhi.n	10002960 <__gxx_personality_v0+0xac>
10002a12:	e7dc      	b.n	100029ce <__gxx_personality_v0+0x11a>
10002a14:	2308      	movs	r3, #8
10002a16:	001a      	movs	r2, r3
10002a18:	4002      	ands	r2, r0
10002a1a:	4203      	tst	r3, r0
10002a1c:	d014      	beq.n	10002a48 <__gxx_personality_v0+0x194>
10002a1e:	2302      	movs	r3, #2
10002a20:	431a      	orrs	r2, r3
10002a22:	9202      	str	r2, [sp, #8]
10002a24:	910c      	str	r1, [sp, #48]	; 0x30
10002a26:	ad0c      	add	r5, sp, #48	; 0x30
10002a28:	e770      	b.n	1000290c <__gxx_personality_v0+0x58>
10002a2a:	2308      	movs	r3, #8
10002a2c:	9a02      	ldr	r2, [sp, #8]
10002a2e:	4213      	tst	r3, r2
10002a30:	d007      	beq.n	10002a42 <__gxx_personality_v0+0x18e>
10002a32:	f000 f9a5 	bl	10002d80 <_ZSt9terminatev>
10002a36:	9902      	ldr	r1, [sp, #8]
10002a38:	420a      	tst	r2, r1
10002a3a:	d1cb      	bne.n	100029d4 <__gxx_personality_v0+0x120>
10002a3c:	2308      	movs	r3, #8
10002a3e:	420b      	tst	r3, r1
10002a40:	d1f7      	bne.n	10002a32 <__gxx_personality_v0+0x17e>
10002a42:	4658      	mov	r0, fp
10002a44:	f000 fcaa 	bl	1000339c <__cxa_call_terminate>
10002a48:	ad0c      	add	r5, sp, #48	; 0x30
10002a4a:	6a0c      	ldr	r4, [r1, #32]
10002a4c:	2300      	movs	r3, #0
10002a4e:	220d      	movs	r2, #13
10002a50:	2100      	movs	r1, #0
10002a52:	4640      	mov	r0, r8
10002a54:	9500      	str	r5, [sp, #0]
10002a56:	f001 fbab 	bl	100041b0 <___Unwind_VRS_Get_veneer>
10002a5a:	9b0c      	ldr	r3, [sp, #48]	; 0x30
10002a5c:	429c      	cmp	r4, r3
10002a5e:	d002      	beq.n	10002a66 <__gxx_personality_v0+0x1b2>
10002a60:	2302      	movs	r3, #2
10002a62:	9302      	str	r3, [sp, #8]
10002a64:	e750      	b.n	10002908 <__gxx_personality_v0+0x54>
10002a66:	465b      	mov	r3, fp
10002a68:	220c      	movs	r2, #12
10002a6a:	930c      	str	r3, [sp, #48]	; 0x30
10002a6c:	2100      	movs	r1, #0
10002a6e:	2300      	movs	r3, #0
10002a70:	4640      	mov	r0, r8
10002a72:	9500      	str	r5, [sp, #0]
10002a74:	f001 fb54 	bl	10004120 <___Unwind_VRS_Set_veneer>
10002a78:	465b      	mov	r3, fp
10002a7a:	6b1b      	ldr	r3, [r3, #48]	; 0x30
10002a7c:	9304      	str	r3, [sp, #16]
10002a7e:	2b00      	cmp	r3, #0
10002a80:	d0df      	beq.n	10002a42 <__gxx_personality_v0+0x18e>
10002a82:	465b      	mov	r3, fp
10002a84:	6a9c      	ldr	r4, [r3, #40]	; 0x28
10002a86:	6adb      	ldr	r3, [r3, #44]	; 0x2c
10002a88:	9303      	str	r3, [sp, #12]
10002a8a:	ab0b      	add	r3, sp, #44	; 0x2c
10002a8c:	469a      	mov	sl, r3
10002a8e:	2603      	movs	r6, #3
10002a90:	2c00      	cmp	r4, #0
10002a92:	db4d      	blt.n	10002b30 <__gxx_personality_v0+0x27c>
10002a94:	465b      	mov	r3, fp
10002a96:	930b      	str	r3, [sp, #44]	; 0x2c
10002a98:	4653      	mov	r3, sl
10002a9a:	2200      	movs	r2, #0
10002a9c:	2100      	movs	r1, #0
10002a9e:	9300      	str	r3, [sp, #0]
10002aa0:	4640      	mov	r0, r8
10002aa2:	2300      	movs	r3, #0
10002aa4:	f001 fb3c 	bl	10004120 <___Unwind_VRS_Set_veneer>
10002aa8:	4653      	mov	r3, sl
10002aaa:	2201      	movs	r2, #1
10002aac:	2100      	movs	r1, #0
10002aae:	9300      	str	r3, [sp, #0]
10002ab0:	4640      	mov	r0, r8
10002ab2:	2300      	movs	r3, #0
10002ab4:	940b      	str	r4, [sp, #44]	; 0x2c
10002ab6:	f001 fb33 	bl	10004120 <___Unwind_VRS_Set_veneer>
10002aba:	4653      	mov	r3, sl
10002abc:	220f      	movs	r2, #15
10002abe:	2100      	movs	r1, #0
10002ac0:	9300      	str	r3, [sp, #0]
10002ac2:	4640      	mov	r0, r8
10002ac4:	2300      	movs	r3, #0
10002ac6:	f001 fb73 	bl	100041b0 <___Unwind_VRS_Get_veneer>
10002aca:	2301      	movs	r3, #1
10002acc:	9a0b      	ldr	r2, [sp, #44]	; 0x2c
10002ace:	2100      	movs	r1, #0
10002ad0:	4013      	ands	r3, r2
10002ad2:	9a04      	ldr	r2, [sp, #16]
10002ad4:	4640      	mov	r0, r8
10002ad6:	4313      	orrs	r3, r2
10002ad8:	930b      	str	r3, [sp, #44]	; 0x2c
10002ada:	4653      	mov	r3, sl
10002adc:	220f      	movs	r2, #15
10002ade:	9300      	str	r3, [sp, #0]
10002ae0:	2300      	movs	r3, #0
10002ae2:	f001 fb1d 	bl	10004120 <___Unwind_VRS_Set_veneer>
10002ae6:	2407      	movs	r4, #7
10002ae8:	2e02      	cmp	r6, #2
10002aea:	d000      	beq.n	10002aee <__gxx_personality_v0+0x23a>
10002aec:	e6fc      	b.n	100028e8 <__gxx_personality_v0+0x34>
10002aee:	4658      	mov	r0, fp
10002af0:	f7ff fd66 	bl	100025c0 <__cxa_begin_cleanup>
10002af4:	e6f8      	b.n	100028e8 <__gxx_personality_v0+0x34>
10002af6:	9b0b      	ldr	r3, [sp, #44]	; 0x2c
10002af8:	2b00      	cmp	r3, #0
10002afa:	d100      	bne.n	10002afe <__gxx_personality_v0+0x24a>
10002afc:	e6ec      	b.n	100028d8 <__gxx_personality_v0+0x24>
10002afe:	686a      	ldr	r2, [r5, #4]
10002b00:	4694      	mov	ip, r2
10002b02:	4463      	add	r3, ip
10002b04:	9304      	str	r3, [sp, #16]
10002b06:	2c00      	cmp	r4, #0
10002b08:	d131      	bne.n	10002b6e <__gxx_personality_v0+0x2ba>
10002b0a:	2b00      	cmp	r3, #0
10002b0c:	d100      	bne.n	10002b10 <__gxx_personality_v0+0x25c>
10002b0e:	e6e3      	b.n	100028d8 <__gxx_personality_v0+0x24>
10002b10:	9b02      	ldr	r3, [sp, #8]
10002b12:	07db      	lsls	r3, r3, #31
10002b14:	d500      	bpl.n	10002b18 <__gxx_personality_v0+0x264>
10002b16:	e6df      	b.n	100028d8 <__gxx_personality_v0+0x24>
10002b18:	2602      	movs	r6, #2
10002b1a:	e7bb      	b.n	10002a94 <__gxx_personality_v0+0x1e0>
10002b1c:	9b07      	ldr	r3, [sp, #28]
10002b1e:	4654      	mov	r4, sl
10002b20:	46ab      	mov	fp, r5
10002b22:	4698      	mov	r8, r3
10002b24:	46b2      	mov	sl, r6
10002b26:	464d      	mov	r5, r9
10002b28:	9b02      	ldr	r3, [sp, #8]
10002b2a:	07db      	lsls	r3, r3, #31
10002b2c:	d500      	bpl.n	10002b30 <__gxx_personality_v0+0x27c>
10002b2e:	e754      	b.n	100029da <__gxx_personality_v0+0x126>
10002b30:	002a      	movs	r2, r5
10002b32:	9903      	ldr	r1, [sp, #12]
10002b34:	4640      	mov	r0, r8
10002b36:	f7ff fe71 	bl	1000281c <_ZL17parse_lsda_headerP15_Unwind_ContextPKhP16lsda_header_info>
10002b3a:	4641      	mov	r1, r8
10002b3c:	7d28      	ldrb	r0, [r5, #20]
10002b3e:	f7ff fe49 	bl	100027d4 <_ZL21base_of_encoded_valuehP15_Unwind_Context>
10002b42:	43e3      	mvns	r3, r4
10002b44:	68e9      	ldr	r1, [r5, #12]
10002b46:	009b      	lsls	r3, r3, #2
10002b48:	60a8      	str	r0, [r5, #8]
10002b4a:	18c9      	adds	r1, r1, r3
10002b4c:	680b      	ldr	r3, [r1, #0]
10002b4e:	2b00      	cmp	r3, #0
10002b50:	d005      	beq.n	10002b5e <__gxx_personality_v0+0x2aa>
10002b52:	2300      	movs	r3, #0
10002b54:	3301      	adds	r3, #1
10002b56:	009a      	lsls	r2, r3, #2
10002b58:	588a      	ldr	r2, [r1, r2]
10002b5a:	2a00      	cmp	r2, #0
10002b5c:	d1fa      	bne.n	10002b54 <__gxx_personality_v0+0x2a0>
10002b5e:	465a      	mov	r2, fp
10002b60:	6293      	str	r3, [r2, #40]	; 0x28
10002b62:	2304      	movs	r3, #4
10002b64:	2603      	movs	r6, #3
10002b66:	62d0      	str	r0, [r2, #44]	; 0x2c
10002b68:	6313      	str	r3, [r2, #48]	; 0x30
10002b6a:	6351      	str	r1, [r2, #52]	; 0x34
10002b6c:	e792      	b.n	10002a94 <__gxx_personality_v0+0x1e0>
10002b6e:	692b      	ldr	r3, [r5, #16]
10002b70:	1e66      	subs	r6, r4, #1
10002b72:	469c      	mov	ip, r3
10002b74:	9b04      	ldr	r3, [sp, #16]
10002b76:	4466      	add	r6, ip
10002b78:	2b00      	cmp	r3, #0
10002b7a:	d100      	bne.n	10002b7e <__gxx_personality_v0+0x2ca>
10002b7c:	e6ac      	b.n	100028d8 <__gxx_personality_v0+0x24>
10002b7e:	2e00      	cmp	r6, #0
10002b80:	d100      	bne.n	10002b84 <__gxx_personality_v0+0x2d0>
10002b82:	e0ce      	b.n	10002d22 <__gxx_personality_v0+0x46e>
10002b84:	9a02      	ldr	r2, [sp, #8]
10002b86:	2308      	movs	r3, #8
10002b88:	0011      	movs	r1, r2
10002b8a:	4019      	ands	r1, r3
10002b8c:	9106      	str	r1, [sp, #24]
10002b8e:	4213      	tst	r3, r2
10002b90:	d100      	bne.n	10002b94 <__gxx_personality_v0+0x2e0>
10002b92:	e0cd      	b.n	10002d30 <__gxx_personality_v0+0x47c>
10002b94:	465a      	mov	r2, fp
10002b96:	333f      	adds	r3, #63	; 0x3f
10002b98:	7013      	strb	r3, [r2, #0]
10002b9a:	3307      	adds	r3, #7
10002b9c:	7053      	strb	r3, [r2, #1]
10002b9e:	3307      	adds	r3, #7
10002ba0:	7093      	strb	r3, [r2, #2]
10002ba2:	3b12      	subs	r3, #18
10002ba4:	70d3      	strb	r3, [r2, #3]
10002ba6:	3303      	adds	r3, #3
10002ba8:	7113      	strb	r3, [r2, #4]
10002baa:	3309      	adds	r3, #9
10002bac:	7153      	strb	r3, [r2, #5]
10002bae:	3303      	adds	r3, #3
10002bb0:	7193      	strb	r3, [r2, #6]
10002bb2:	2300      	movs	r3, #0
10002bb4:	71d3      	strb	r3, [r2, #7]
10002bb6:	2300      	movs	r3, #0
10002bb8:	4642      	mov	r2, r8
10002bba:	9305      	str	r3, [sp, #20]
10002bbc:	277f      	movs	r7, #127	; 0x7f
10002bbe:	0033      	movs	r3, r6
10002bc0:	46a9      	mov	r9, r5
10002bc2:	9207      	str	r2, [sp, #28]
10002bc4:	2400      	movs	r4, #0
10002bc6:	2100      	movs	r1, #0
10002bc8:	001a      	movs	r2, r3
10002bca:	7810      	ldrb	r0, [r2, #0]
10002bcc:	003a      	movs	r2, r7
10002bce:	4002      	ands	r2, r0
10002bd0:	408a      	lsls	r2, r1
10002bd2:	3301      	adds	r3, #1
10002bd4:	4314      	orrs	r4, r2
10002bd6:	b242      	sxtb	r2, r0
10002bd8:	001d      	movs	r5, r3
10002bda:	3107      	adds	r1, #7
10002bdc:	2a00      	cmp	r2, #0
10002bde:	dbf3      	blt.n	10002bc8 <__gxx_personality_v0+0x314>
10002be0:	291f      	cmp	r1, #31
10002be2:	d806      	bhi.n	10002bf2 <__gxx_personality_v0+0x33e>
10002be4:	2240      	movs	r2, #64	; 0x40
10002be6:	4202      	tst	r2, r0
10002be8:	d003      	beq.n	10002bf2 <__gxx_personality_v0+0x33e>
10002bea:	3a3f      	subs	r2, #63	; 0x3f
10002bec:	408a      	lsls	r2, r1
10002bee:	4252      	negs	r2, r2
10002bf0:	4314      	orrs	r4, r2
10002bf2:	2600      	movs	r6, #0
10002bf4:	2100      	movs	r1, #0
10002bf6:	003a      	movs	r2, r7
10002bf8:	7818      	ldrb	r0, [r3, #0]
10002bfa:	3301      	adds	r3, #1
10002bfc:	4002      	ands	r2, r0
10002bfe:	408a      	lsls	r2, r1
10002c00:	4316      	orrs	r6, r2
10002c02:	b242      	sxtb	r2, r0
10002c04:	3107      	adds	r1, #7
10002c06:	2a00      	cmp	r2, #0
10002c08:	dbf5      	blt.n	10002bf6 <__gxx_personality_v0+0x342>
10002c0a:	291f      	cmp	r1, #31
10002c0c:	d806      	bhi.n	10002c1c <__gxx_personality_v0+0x368>
10002c0e:	2340      	movs	r3, #64	; 0x40
10002c10:	4203      	tst	r3, r0
10002c12:	d003      	beq.n	10002c1c <__gxx_personality_v0+0x368>
10002c14:	3b3f      	subs	r3, #63	; 0x3f
10002c16:	408b      	lsls	r3, r1
10002c18:	425b      	negs	r3, r3
10002c1a:	431e      	orrs	r6, r3
10002c1c:	2c00      	cmp	r4, #0
10002c1e:	d010      	beq.n	10002c42 <__gxx_personality_v0+0x38e>
10002c20:	dc12      	bgt.n	10002c48 <__gxx_personality_v0+0x394>
10002c22:	465b      	mov	r3, fp
10002c24:	2b00      	cmp	r3, #0
10002c26:	d002      	beq.n	10002c2e <__gxx_personality_v0+0x37a>
10002c28:	9b06      	ldr	r3, [sp, #24]
10002c2a:	2b00      	cmp	r3, #0
10002c2c:	d047      	beq.n	10002cbe <__gxx_personality_v0+0x40a>
10002c2e:	43e3      	mvns	r3, r4
10002c30:	9a0f      	ldr	r2, [sp, #60]	; 0x3c
10002c32:	009b      	lsls	r3, r3, #2
10002c34:	589b      	ldr	r3, [r3, r2]
10002c36:	2b00      	cmp	r3, #0
10002c38:	d02b      	beq.n	10002c92 <__gxx_personality_v0+0x3de>
10002c3a:	2e00      	cmp	r6, #0
10002c3c:	d06b      	beq.n	10002d16 <__gxx_personality_v0+0x462>
10002c3e:	19ab      	adds	r3, r5, r6
10002c40:	e7c0      	b.n	10002bc4 <__gxx_personality_v0+0x310>
10002c42:	2301      	movs	r3, #1
10002c44:	9305      	str	r3, [sp, #20]
10002c46:	e7f8      	b.n	10002c3a <__gxx_personality_v0+0x386>
10002c48:	464b      	mov	r3, r9
10002c4a:	7d18      	ldrb	r0, [r3, #20]
10002c4c:	28ff      	cmp	r0, #255	; 0xff
10002c4e:	d060      	beq.n	10002d12 <__gxx_personality_v0+0x45e>
10002c50:	2307      	movs	r3, #7
10002c52:	4003      	ands	r3, r0
10002c54:	2b02      	cmp	r3, #2
10002c56:	d059      	beq.n	10002d0c <__gxx_personality_v0+0x458>
10002c58:	d92c      	bls.n	10002cb4 <__gxx_personality_v0+0x400>
10002c5a:	2b03      	cmp	r3, #3
10002c5c:	d02c      	beq.n	10002cb8 <__gxx_personality_v0+0x404>
10002c5e:	2b04      	cmp	r3, #4
10002c60:	d175      	bne.n	10002d4e <__gxx_personality_v0+0x49a>
10002c62:	00e2      	lsls	r2, r4, #3
10002c64:	4252      	negs	r2, r2
10002c66:	464b      	mov	r3, r9
10002c68:	68db      	ldr	r3, [r3, #12]
10002c6a:	4649      	mov	r1, r9
10002c6c:	469c      	mov	ip, r3
10002c6e:	6889      	ldr	r1, [r1, #8]
10002c70:	4653      	mov	r3, sl
10002c72:	4462      	add	r2, ip
10002c74:	f7ff fd24 	bl	100026c0 <_ZL28read_encoded_value_with_basehjPKhPj>
10002c78:	990b      	ldr	r1, [sp, #44]	; 0x2c
10002c7a:	2900      	cmp	r1, #0
10002c7c:	d009      	beq.n	10002c92 <__gxx_personality_v0+0x3de>
10002c7e:	465b      	mov	r3, fp
10002c80:	2b00      	cmp	r3, #0
10002c82:	d0da      	beq.n	10002c3a <__gxx_personality_v0+0x386>
10002c84:	2200      	movs	r2, #0
10002c86:	4658      	mov	r0, fp
10002c88:	ab08      	add	r3, sp, #32
10002c8a:	f7ff fc31 	bl	100024f0 <__cxa_type_match>
10002c8e:	2800      	cmp	r0, #0
10002c90:	d0d3      	beq.n	10002c3a <__gxx_personality_v0+0x386>
10002c92:	9b07      	ldr	r3, [sp, #28]
10002c94:	464d      	mov	r5, r9
10002c96:	4698      	mov	r8, r3
10002c98:	9b02      	ldr	r3, [sp, #8]
10002c9a:	07db      	lsls	r3, r3, #31
10002c9c:	d500      	bpl.n	10002ca0 <__gxx_personality_v0+0x3ec>
10002c9e:	e69c      	b.n	100029da <__gxx_personality_v0+0x126>
10002ca0:	9b06      	ldr	r3, [sp, #24]
10002ca2:	2b00      	cmp	r3, #0
10002ca4:	d100      	bne.n	10002ca8 <__gxx_personality_v0+0x3f4>
10002ca6:	e6f2      	b.n	10002a8e <__gxx_personality_v0+0x1da>
10002ca8:	2603      	movs	r6, #3
10002caa:	2c00      	cmp	r4, #0
10002cac:	db00      	blt.n	10002cb0 <__gxx_personality_v0+0x3fc>
10002cae:	e6f1      	b.n	10002a94 <__gxx_personality_v0+0x1e0>
10002cb0:	f000 f872 	bl	10002d98 <_ZSt10unexpectedv>
10002cb4:	2b00      	cmp	r3, #0
10002cb6:	d14a      	bne.n	10002d4e <__gxx_personality_v0+0x49a>
10002cb8:	00a2      	lsls	r2, r4, #2
10002cba:	4252      	negs	r2, r2
10002cbc:	e7d3      	b.n	10002c66 <__gxx_personality_v0+0x3b2>
10002cbe:	9b08      	ldr	r3, [sp, #32]
10002cc0:	9a0f      	ldr	r2, [sp, #60]	; 0x3c
10002cc2:	930b      	str	r3, [sp, #44]	; 0x2c
10002cc4:	43e3      	mvns	r3, r4
10002cc6:	4690      	mov	r8, r2
10002cc8:	009b      	lsls	r3, r3, #2
10002cca:	4498      	add	r8, r3
10002ccc:	4643      	mov	r3, r8
10002cce:	6819      	ldr	r1, [r3, #0]
10002cd0:	2900      	cmp	r1, #0
10002cd2:	d038      	beq.n	10002d46 <__gxx_personality_v0+0x492>
10002cd4:	465b      	mov	r3, fp
10002cd6:	4652      	mov	r2, sl
10002cd8:	46ab      	mov	fp, r5
10002cda:	46a2      	mov	sl, r4
10002cdc:	001d      	movs	r5, r3
10002cde:	4644      	mov	r4, r8
10002ce0:	46b0      	mov	r8, r6
10002ce2:	0016      	movs	r6, r2
10002ce4:	e004      	b.n	10002cf0 <__gxx_personality_v0+0x43c>
10002ce6:	6861      	ldr	r1, [r4, #4]
10002ce8:	3404      	adds	r4, #4
10002cea:	2900      	cmp	r1, #0
10002cec:	d100      	bne.n	10002cf0 <__gxx_personality_v0+0x43c>
10002cee:	e715      	b.n	10002b1c <__gxx_personality_v0+0x268>
10002cf0:	0033      	movs	r3, r6
10002cf2:	2200      	movs	r2, #0
10002cf4:	0028      	movs	r0, r5
10002cf6:	1861      	adds	r1, r4, r1
10002cf8:	f7ff fbfa 	bl	100024f0 <__cxa_type_match>
10002cfc:	2800      	cmp	r0, #0
10002cfe:	d0f2      	beq.n	10002ce6 <__gxx_personality_v0+0x432>
10002d00:	002b      	movs	r3, r5
10002d02:	46b2      	mov	sl, r6
10002d04:	465d      	mov	r5, fp
10002d06:	4646      	mov	r6, r8
10002d08:	469b      	mov	fp, r3
10002d0a:	e796      	b.n	10002c3a <__gxx_personality_v0+0x386>
10002d0c:	0062      	lsls	r2, r4, #1
10002d0e:	4252      	negs	r2, r2
10002d10:	e7a9      	b.n	10002c66 <__gxx_personality_v0+0x3b2>
10002d12:	2200      	movs	r2, #0
10002d14:	e7a7      	b.n	10002c66 <__gxx_personality_v0+0x3b2>
10002d16:	9b07      	ldr	r3, [sp, #28]
10002d18:	4698      	mov	r8, r3
10002d1a:	9b05      	ldr	r3, [sp, #20]
10002d1c:	2b00      	cmp	r3, #0
10002d1e:	d100      	bne.n	10002d22 <__gxx_personality_v0+0x46e>
10002d20:	e5da      	b.n	100028d8 <__gxx_personality_v0+0x24>
10002d22:	9b02      	ldr	r3, [sp, #8]
10002d24:	07db      	lsls	r3, r3, #31
10002d26:	d500      	bpl.n	10002d2a <__gxx_personality_v0+0x476>
10002d28:	e5d6      	b.n	100028d8 <__gxx_personality_v0+0x24>
10002d2a:	2400      	movs	r4, #0
10002d2c:	2602      	movs	r6, #2
10002d2e:	e6b1      	b.n	10002a94 <__gxx_personality_v0+0x1e0>
10002d30:	465b      	mov	r3, fp
10002d32:	79da      	ldrb	r2, [r3, #7]
10002d34:	3358      	adds	r3, #88	; 0x58
10002d36:	2a01      	cmp	r2, #1
10002d38:	d001      	beq.n	10002d3e <__gxx_personality_v0+0x48a>
10002d3a:	9308      	str	r3, [sp, #32]
10002d3c:	e73b      	b.n	10002bb6 <__gxx_personality_v0+0x302>
10002d3e:	3b78      	subs	r3, #120	; 0x78
10002d40:	681b      	ldr	r3, [r3, #0]
10002d42:	9308      	str	r3, [sp, #32]
10002d44:	e737      	b.n	10002bb6 <__gxx_personality_v0+0x302>
10002d46:	9b07      	ldr	r3, [sp, #28]
10002d48:	464d      	mov	r5, r9
10002d4a:	4698      	mov	r8, r3
10002d4c:	e6ec      	b.n	10002b28 <__gxx_personality_v0+0x274>
10002d4e:	f000 fc37 	bl	100035c0 <abort>
10002d52:	f000 fbb3 	bl	100034bc <__cxa_begin_catch>
10002d56:	e66c      	b.n	10002a32 <__gxx_personality_v0+0x17e>

10002d58 <_ZN10__cxxabiv111__terminateEPFvvE>:
10002d58:	b570      	push	{r4, r5, r6, lr}
10002d5a:	4780      	blx	r0
10002d5c:	f000 fc30 	bl	100035c0 <abort>
10002d60:	f000 fbac 	bl	100034bc <__cxa_begin_catch>
10002d64:	f000 fc2c 	bl	100035c0 <abort>
10002d68:	000d      	movs	r5, r1
10002d6a:	0004      	movs	r4, r0
10002d6c:	f000 fbe0 	bl	10003530 <__cxa_end_catch>
10002d70:	1c6b      	adds	r3, r5, #1
10002d72:	d102      	bne.n	10002d7a <_ZN10__cxxabiv111__terminateEPFvvE+0x22>
10002d74:	0020      	movs	r0, r4
10002d76:	f000 fb21 	bl	100033bc <__cxa_call_unexpected>
10002d7a:	f7ff fbb3 	bl	100024e4 <__cxa_end_cleanup>
10002d7e:	46c0      	nop			; (mov r8, r8)

10002d80 <_ZSt9terminatev>:
10002d80:	4b02      	ldr	r3, [pc, #8]	; (10002d8c <_ZSt9terminatev+0xc>)
10002d82:	b510      	push	{r4, lr}
10002d84:	6818      	ldr	r0, [r3, #0]
10002d86:	f7ff ffe7 	bl	10002d58 <_ZN10__cxxabiv111__terminateEPFvvE>
10002d8a:	46c0      	nop			; (mov r8, r8)
10002d8c:	20001184 	.word	0x20001184

10002d90 <_ZN10__cxxabiv112__unexpectedEPFvvE>:
10002d90:	b510      	push	{r4, lr}
10002d92:	4780      	blx	r0
10002d94:	f7ff fff4 	bl	10002d80 <_ZSt9terminatev>

10002d98 <_ZSt10unexpectedv>:
10002d98:	4b02      	ldr	r3, [pc, #8]	; (10002da4 <_ZSt10unexpectedv+0xc>)
10002d9a:	b510      	push	{r4, lr}
10002d9c:	6818      	ldr	r0, [r3, #0]
10002d9e:	f7ff fff7 	bl	10002d90 <_ZN10__cxxabiv112__unexpectedEPFvvE>
10002da2:	46c0      	nop			; (mov r8, r8)
10002da4:	20001180 	.word	0x20001180

10002da8 <_ZSt13get_terminatev>:
10002da8:	4b01      	ldr	r3, [pc, #4]	; (10002db0 <_ZSt13get_terminatev+0x8>)
10002daa:	6818      	ldr	r0, [r3, #0]
10002dac:	4770      	bx	lr
10002dae:	46c0      	nop			; (mov r8, r8)
10002db0:	20001184 	.word	0x20001184

10002db4 <_ZSt14get_unexpectedv>:
10002db4:	4b01      	ldr	r3, [pc, #4]	; (10002dbc <_ZSt14get_unexpectedv+0x8>)
10002db6:	6818      	ldr	r0, [r3, #0]
10002db8:	4770      	bx	lr
10002dba:	46c0      	nop			; (mov r8, r8)
10002dbc:	20001180 	.word	0x20001180

10002dc0 <_ZL23__gxx_exception_cleanup19_Unwind_Reason_CodeP21_Unwind_Control_Block>:
10002dc0:	b510      	push	{r4, lr}
10002dc2:	2801      	cmp	r0, #1
10002dc4:	d812      	bhi.n	10002dec <_ZL23__gxx_exception_cleanup19_Unwind_Reason_CodeP21_Unwind_Control_Block+0x2c>
10002dc6:	000b      	movs	r3, r1
10002dc8:	3b28      	subs	r3, #40	; 0x28
10002dca:	681a      	ldr	r2, [r3, #0]
10002dcc:	1e50      	subs	r0, r2, #1
10002dce:	6018      	str	r0, [r3, #0]
10002dd0:	2a01      	cmp	r2, #1
10002dd2:	d000      	beq.n	10002dd6 <_ZL23__gxx_exception_cleanup19_Unwind_Reason_CodeP21_Unwind_Control_Block+0x16>
10002dd4:	bd10      	pop	{r4, pc}
10002dd6:	68db      	ldr	r3, [r3, #12]
10002dd8:	3158      	adds	r1, #88	; 0x58
10002dda:	000c      	movs	r4, r1
10002ddc:	2b00      	cmp	r3, #0
10002dde:	d001      	beq.n	10002de4 <_ZL23__gxx_exception_cleanup19_Unwind_Reason_CodeP21_Unwind_Control_Block+0x24>
10002de0:	0008      	movs	r0, r1
10002de2:	4798      	blx	r3
10002de4:	0020      	movs	r0, r4
10002de6:	f7ff fb55 	bl	10002494 <__cxa_free_exception>
10002dea:	e7f3      	b.n	10002dd4 <_ZL23__gxx_exception_cleanup19_Unwind_Reason_CodeP21_Unwind_Control_Block+0x14>
10002dec:	3928      	subs	r1, #40	; 0x28
10002dee:	6948      	ldr	r0, [r1, #20]
10002df0:	f7ff ffb2 	bl	10002d58 <_ZN10__cxxabiv111__terminateEPFvvE>

10002df4 <__cxa_init_primary_exception>:
10002df4:	b570      	push	{r4, r5, r6, lr}
10002df6:	0005      	movs	r5, r0
10002df8:	2600      	movs	r6, #0
10002dfa:	3d80      	subs	r5, #128	; 0x80
10002dfc:	60ea      	str	r2, [r5, #12]
10002dfe:	602e      	str	r6, [r5, #0]
10002e00:	60a9      	str	r1, [r5, #8]
10002e02:	0004      	movs	r4, r0
10002e04:	f7ff ffd6 	bl	10002db4 <_ZSt14get_unexpectedv>
10002e08:	6128      	str	r0, [r5, #16]
10002e0a:	f7ff ffcd 	bl	10002da8 <_ZSt13get_terminatev>
10002e0e:	0023      	movs	r3, r4
10002e10:	2247      	movs	r2, #71	; 0x47
10002e12:	3b58      	subs	r3, #88	; 0x58
10002e14:	6168      	str	r0, [r5, #20]
10002e16:	701a      	strb	r2, [r3, #0]
10002e18:	3207      	adds	r2, #7
10002e1a:	705a      	strb	r2, [r3, #1]
10002e1c:	3207      	adds	r2, #7
10002e1e:	709a      	strb	r2, [r3, #2]
10002e20:	0022      	movs	r2, r4
10002e22:	2343      	movs	r3, #67	; 0x43
10002e24:	3a55      	subs	r2, #85	; 0x55
10002e26:	7013      	strb	r3, [r2, #0]
10002e28:	7053      	strb	r3, [r2, #1]
10002e2a:	3b18      	subs	r3, #24
10002e2c:	7093      	strb	r3, [r2, #2]
10002e2e:	70d3      	strb	r3, [r2, #3]
10002e30:	4b02      	ldr	r3, [pc, #8]	; (10002e3c <__cxa_init_primary_exception+0x48>)
10002e32:	3c51      	subs	r4, #81	; 0x51
10002e34:	0028      	movs	r0, r5
10002e36:	7026      	strb	r6, [r4, #0]
10002e38:	632b      	str	r3, [r5, #48]	; 0x30
10002e3a:	bd70      	pop	{r4, r5, r6, pc}
10002e3c:	10002dc1 	.word	0x10002dc1

10002e40 <__cxa_throw>:
10002e40:	b570      	push	{r4, r5, r6, lr}
10002e42:	0004      	movs	r4, r0
10002e44:	000d      	movs	r5, r1
10002e46:	0016      	movs	r6, r2
10002e48:	f7ff fc36 	bl	100026b8 <__cxa_get_globals>
10002e4c:	6843      	ldr	r3, [r0, #4]
10002e4e:	0032      	movs	r2, r6
10002e50:	3301      	adds	r3, #1
10002e52:	0029      	movs	r1, r5
10002e54:	6043      	str	r3, [r0, #4]
10002e56:	0020      	movs	r0, r4
10002e58:	f7ff ffcc 	bl	10002df4 <__cxa_init_primary_exception>
10002e5c:	2301      	movs	r3, #1
10002e5e:	6003      	str	r3, [r0, #0]
10002e60:	3028      	adds	r0, #40	; 0x28
10002e62:	0004      	movs	r4, r0
10002e64:	f001 f9b4 	bl	100041d0 <___Unwind_RaiseException_veneer>
10002e68:	0020      	movs	r0, r4
10002e6a:	f000 fb27 	bl	100034bc <__cxa_begin_catch>
10002e6e:	f7ff ff87 	bl	10002d80 <_ZSt9terminatev>
10002e72:	46c0      	nop			; (mov r8, r8)

10002e74 <__cxa_rethrow>:
10002e74:	b510      	push	{r4, lr}
10002e76:	f7ff fc1f 	bl	100026b8 <__cxa_get_globals>
10002e7a:	6843      	ldr	r3, [r0, #4]
10002e7c:	6804      	ldr	r4, [r0, #0]
10002e7e:	3301      	adds	r3, #1
10002e80:	6043      	str	r3, [r0, #4]
10002e82:	2c00      	cmp	r4, #0
10002e84:	d00c      	beq.n	10002ea0 <__cxa_rethrow+0x2c>
10002e86:	2320      	movs	r3, #32
10002e88:	5ce3      	ldrb	r3, [r4, r3]
10002e8a:	2b47      	cmp	r3, #71	; 0x47
10002e8c:	d00a      	beq.n	10002ea4 <__cxa_rethrow+0x30>
10002e8e:	2300      	movs	r3, #0
10002e90:	6003      	str	r3, [r0, #0]
10002e92:	3420      	adds	r4, #32
10002e94:	0020      	movs	r0, r4
10002e96:	f001 f993 	bl	100041c0 <___Unwind_Resume_or_Rethrow_veneer>
10002e9a:	0020      	movs	r0, r4
10002e9c:	f000 fb0e 	bl	100034bc <__cxa_begin_catch>
10002ea0:	f7ff ff6e 	bl	10002d80 <_ZSt9terminatev>
10002ea4:	3b26      	subs	r3, #38	; 0x26
10002ea6:	5ce3      	ldrb	r3, [r4, r3]
10002ea8:	2b4e      	cmp	r3, #78	; 0x4e
10002eaa:	d1f0      	bne.n	10002e8e <__cxa_rethrow+0x1a>
10002eac:	3b2c      	subs	r3, #44	; 0x2c
10002eae:	5ce3      	ldrb	r3, [r4, r3]
10002eb0:	2b55      	cmp	r3, #85	; 0x55
10002eb2:	d1ec      	bne.n	10002e8e <__cxa_rethrow+0x1a>
10002eb4:	3b32      	subs	r3, #50	; 0x32
10002eb6:	5ce3      	ldrb	r3, [r4, r3]
10002eb8:	2b43      	cmp	r3, #67	; 0x43
10002eba:	d1e8      	bne.n	10002e8e <__cxa_rethrow+0x1a>
10002ebc:	3b1f      	subs	r3, #31
10002ebe:	5ce3      	ldrb	r3, [r4, r3]
10002ec0:	2b43      	cmp	r3, #67	; 0x43
10002ec2:	d1e4      	bne.n	10002e8e <__cxa_rethrow+0x1a>
10002ec4:	3b1e      	subs	r3, #30
10002ec6:	5ce3      	ldrb	r3, [r4, r3]
10002ec8:	2b2b      	cmp	r3, #43	; 0x2b
10002eca:	d1e0      	bne.n	10002e8e <__cxa_rethrow+0x1a>
10002ecc:	3b05      	subs	r3, #5
10002ece:	5ce3      	ldrb	r3, [r4, r3]
10002ed0:	2b2b      	cmp	r3, #43	; 0x2b
10002ed2:	d1dc      	bne.n	10002e8e <__cxa_rethrow+0x1a>
10002ed4:	3b04      	subs	r3, #4
10002ed6:	5ce3      	ldrb	r3, [r4, r3]
10002ed8:	2b01      	cmp	r3, #1
10002eda:	d8d8      	bhi.n	10002e8e <__cxa_rethrow+0x1a>
10002edc:	6963      	ldr	r3, [r4, #20]
10002ede:	425b      	negs	r3, r3
10002ee0:	6163      	str	r3, [r4, #20]
10002ee2:	e7d6      	b.n	10002e92 <__cxa_rethrow+0x1e>

10002ee4 <_ZN10__cxxabiv120__si_class_type_infoD1Ev>:
10002ee4:	b510      	push	{r4, lr}
10002ee6:	0004      	movs	r4, r0
10002ee8:	4b03      	ldr	r3, [pc, #12]	; (10002ef8 <_ZN10__cxxabiv120__si_class_type_infoD1Ev+0x14>)
10002eea:	3308      	adds	r3, #8
10002eec:	6003      	str	r3, [r0, #0]
10002eee:	f000 f9db 	bl	100032a8 <_ZN10__cxxabiv117__class_type_infoD1Ev>
10002ef2:	0020      	movs	r0, r4
10002ef4:	bd10      	pop	{r4, pc}
10002ef6:	46c0      	nop			; (mov r8, r8)
10002ef8:	100044e8 	.word	0x100044e8

10002efc <_ZN10__cxxabiv120__si_class_type_infoD0Ev>:
10002efc:	b510      	push	{r4, lr}
10002efe:	0004      	movs	r4, r0
10002f00:	4b05      	ldr	r3, [pc, #20]	; (10002f18 <_ZN10__cxxabiv120__si_class_type_infoD0Ev+0x1c>)
10002f02:	3308      	adds	r3, #8
10002f04:	6003      	str	r3, [r0, #0]
10002f06:	f000 f9cf 	bl	100032a8 <_ZN10__cxxabiv117__class_type_infoD1Ev>
10002f0a:	0020      	movs	r0, r4
10002f0c:	210c      	movs	r1, #12
10002f0e:	f7fe fedb 	bl	10001cc8 <_ZdlPvj>
10002f12:	0020      	movs	r0, r4
10002f14:	bd10      	pop	{r4, pc}
10002f16:	46c0      	nop			; (mov r8, r8)
10002f18:	100044e8 	.word	0x100044e8

10002f1c <_ZNK10__cxxabiv120__si_class_type_info20__do_find_public_srcEiPKvPKNS_17__class_type_infoES2_>:
10002f1c:	b5f0      	push	{r4, r5, r6, r7, lr}
10002f1e:	b083      	sub	sp, #12
10002f20:	001e      	movs	r6, r3
10002f22:	9b08      	ldr	r3, [sp, #32]
10002f24:	0005      	movs	r5, r0
10002f26:	000f      	movs	r7, r1
10002f28:	0014      	movs	r4, r2
10002f2a:	4293      	cmp	r3, r2
10002f2c:	d00a      	beq.n	10002f44 <_ZNK10__cxxabiv120__si_class_type_info20__do_find_public_srcEiPKvPKNS_17__class_type_infoES2_+0x28>
10002f2e:	68a8      	ldr	r0, [r5, #8]
10002f30:	9a08      	ldr	r2, [sp, #32]
10002f32:	6803      	ldr	r3, [r0, #0]
10002f34:	9200      	str	r2, [sp, #0]
10002f36:	6a1d      	ldr	r5, [r3, #32]
10002f38:	0022      	movs	r2, r4
10002f3a:	0033      	movs	r3, r6
10002f3c:	0039      	movs	r1, r7
10002f3e:	47a8      	blx	r5
10002f40:	b003      	add	sp, #12
10002f42:	bdf0      	pop	{r4, r5, r6, r7, pc}
10002f44:	0031      	movs	r1, r6
10002f46:	f000 f869 	bl	1000301c <_ZNKSt9type_infoeqERKS_>
10002f4a:	2800      	cmp	r0, #0
10002f4c:	d0ef      	beq.n	10002f2e <_ZNK10__cxxabiv120__si_class_type_info20__do_find_public_srcEiPKvPKNS_17__class_type_infoES2_+0x12>
10002f4e:	2006      	movs	r0, #6
10002f50:	e7f6      	b.n	10002f40 <_ZNK10__cxxabiv120__si_class_type_info20__do_find_public_srcEiPKvPKNS_17__class_type_infoES2_+0x24>
10002f52:	46c0      	nop			; (mov r8, r8)

10002f54 <_ZNK10__cxxabiv120__si_class_type_info12__do_dyncastEiNS_17__class_type_info10__sub_kindEPKS1_PKvS4_S6_RNS1_16__dyncast_resultE>:
10002f54:	b5f0      	push	{r4, r5, r6, r7, lr}
10002f56:	46c6      	mov	lr, r8
10002f58:	b500      	push	{lr}
10002f5a:	000d      	movs	r5, r1
10002f5c:	b084      	sub	sp, #16
10002f5e:	0019      	movs	r1, r3
10002f60:	0006      	movs	r6, r0
10002f62:	4690      	mov	r8, r2
10002f64:	001f      	movs	r7, r3
10002f66:	f000 f859 	bl	1000301c <_ZNKSt9type_infoeqERKS_>
10002f6a:	1e04      	subs	r4, r0, #0
10002f6c:	d118      	bne.n	10002fa0 <_ZNK10__cxxabiv120__si_class_type_info12__do_dyncastEiNS_17__class_type_info10__sub_kindEPKS1_PKvS4_S6_RNS1_16__dyncast_resultE+0x4c>
10002f6e:	9b0a      	ldr	r3, [sp, #40]	; 0x28
10002f70:	9a0c      	ldr	r2, [sp, #48]	; 0x30
10002f72:	4293      	cmp	r3, r2
10002f74:	d031      	beq.n	10002fda <_ZNK10__cxxabiv120__si_class_type_info12__do_dyncastEiNS_17__class_type_info10__sub_kindEPKS1_PKvS4_S6_RNS1_16__dyncast_resultE+0x86>
10002f76:	9a0d      	ldr	r2, [sp, #52]	; 0x34
10002f78:	68b0      	ldr	r0, [r6, #8]
10002f7a:	0029      	movs	r1, r5
10002f7c:	6803      	ldr	r3, [r0, #0]
10002f7e:	9203      	str	r2, [sp, #12]
10002f80:	9a0c      	ldr	r2, [sp, #48]	; 0x30
10002f82:	9202      	str	r2, [sp, #8]
10002f84:	9a0b      	ldr	r2, [sp, #44]	; 0x2c
10002f86:	9201      	str	r2, [sp, #4]
10002f88:	9a0a      	ldr	r2, [sp, #40]	; 0x28
10002f8a:	9200      	str	r2, [sp, #0]
10002f8c:	69dc      	ldr	r4, [r3, #28]
10002f8e:	4642      	mov	r2, r8
10002f90:	003b      	movs	r3, r7
10002f92:	47a0      	blx	r4
10002f94:	0004      	movs	r4, r0
10002f96:	0020      	movs	r0, r4
10002f98:	b004      	add	sp, #16
10002f9a:	bc04      	pop	{r2}
10002f9c:	4690      	mov	r8, r2
10002f9e:	bdf0      	pop	{r4, r5, r6, r7, pc}
10002fa0:	9b0d      	ldr	r3, [sp, #52]	; 0x34
10002fa2:	9a0a      	ldr	r2, [sp, #40]	; 0x28
10002fa4:	601a      	str	r2, [r3, #0]
10002fa6:	4642      	mov	r2, r8
10002fa8:	711a      	strb	r2, [r3, #4]
10002faa:	2d00      	cmp	r5, #0
10002fac:	db0e      	blt.n	10002fcc <_ZNK10__cxxabiv120__si_class_type_info12__do_dyncastEiNS_17__class_type_info10__sub_kindEPKS1_PKvS4_S6_RNS1_16__dyncast_resultE+0x78>
10002fae:	9b0a      	ldr	r3, [sp, #40]	; 0x28
10002fb0:	2400      	movs	r4, #0
10002fb2:	469c      	mov	ip, r3
10002fb4:	9b0c      	ldr	r3, [sp, #48]	; 0x30
10002fb6:	4465      	add	r5, ip
10002fb8:	1b5d      	subs	r5, r3, r5
10002fba:	4269      	negs	r1, r5
10002fbc:	414d      	adcs	r5, r1
10002fbe:	2305      	movs	r3, #5
10002fc0:	426d      	negs	r5, r5
10002fc2:	401d      	ands	r5, r3
10002fc4:	9b0d      	ldr	r3, [sp, #52]	; 0x34
10002fc6:	3501      	adds	r5, #1
10002fc8:	719d      	strb	r5, [r3, #6]
10002fca:	e7e4      	b.n	10002f96 <_ZNK10__cxxabiv120__si_class_type_info12__do_dyncastEiNS_17__class_type_info10__sub_kindEPKS1_PKvS4_S6_RNS1_16__dyncast_resultE+0x42>
10002fcc:	2400      	movs	r4, #0
10002fce:	1cab      	adds	r3, r5, #2
10002fd0:	d1e1      	bne.n	10002f96 <_ZNK10__cxxabiv120__si_class_type_info12__do_dyncastEiNS_17__class_type_info10__sub_kindEPKS1_PKvS4_S6_RNS1_16__dyncast_resultE+0x42>
10002fd2:	2301      	movs	r3, #1
10002fd4:	9a0d      	ldr	r2, [sp, #52]	; 0x34
10002fd6:	7193      	strb	r3, [r2, #6]
10002fd8:	e7dd      	b.n	10002f96 <_ZNK10__cxxabiv120__si_class_type_info12__do_dyncastEiNS_17__class_type_info10__sub_kindEPKS1_PKvS4_S6_RNS1_16__dyncast_resultE+0x42>
10002fda:	0030      	movs	r0, r6
10002fdc:	990b      	ldr	r1, [sp, #44]	; 0x2c
10002fde:	f000 f81d 	bl	1000301c <_ZNKSt9type_infoeqERKS_>
10002fe2:	2800      	cmp	r0, #0
10002fe4:	d0c7      	beq.n	10002f76 <_ZNK10__cxxabiv120__si_class_type_info12__do_dyncastEiNS_17__class_type_info10__sub_kindEPKS1_PKvS4_S6_RNS1_16__dyncast_resultE+0x22>
10002fe6:	4642      	mov	r2, r8
10002fe8:	9b0d      	ldr	r3, [sp, #52]	; 0x34
10002fea:	715a      	strb	r2, [r3, #5]
10002fec:	e7d3      	b.n	10002f96 <_ZNK10__cxxabiv120__si_class_type_info12__do_dyncastEiNS_17__class_type_info10__sub_kindEPKS1_PKvS4_S6_RNS1_16__dyncast_resultE+0x42>
10002fee:	46c0      	nop			; (mov r8, r8)

10002ff0 <_ZNK10__cxxabiv120__si_class_type_info11__do_upcastEPKNS_17__class_type_infoEPKvRNS1_15__upcast_resultE>:
10002ff0:	b5f8      	push	{r3, r4, r5, r6, r7, lr}
10002ff2:	0007      	movs	r7, r0
10002ff4:	000c      	movs	r4, r1
10002ff6:	0015      	movs	r5, r2
10002ff8:	001e      	movs	r6, r3
10002ffa:	f000 f991 	bl	10003320 <_ZNK10__cxxabiv117__class_type_info11__do_upcastEPKS0_PKvRNS0_15__upcast_resultE>
10002ffe:	2800      	cmp	r0, #0
10003000:	d106      	bne.n	10003010 <_ZNK10__cxxabiv120__si_class_type_info11__do_upcastEPKNS_17__class_type_infoEPKvRNS1_15__upcast_resultE+0x20>
10003002:	68b8      	ldr	r0, [r7, #8]
10003004:	002a      	movs	r2, r5
10003006:	6803      	ldr	r3, [r0, #0]
10003008:	0021      	movs	r1, r4
1000300a:	699f      	ldr	r7, [r3, #24]
1000300c:	0033      	movs	r3, r6
1000300e:	47b8      	blx	r7
10003010:	bdf8      	pop	{r3, r4, r5, r6, r7, pc}
10003012:	46c0      	nop			; (mov r8, r8)

10003014 <_ZNSt9type_infoD1Ev>:
10003014:	4770      	bx	lr
10003016:	46c0      	nop			; (mov r8, r8)

10003018 <_ZNKSt9type_info14__is_pointer_pEv>:
10003018:	2000      	movs	r0, #0
1000301a:	4770      	bx	lr

1000301c <_ZNKSt9type_infoeqERKS_>:
1000301c:	b510      	push	{r4, lr}
1000301e:	4281      	cmp	r1, r0
10003020:	d011      	beq.n	10003046 <_ZNKSt9type_infoeqERKS_+0x2a>
10003022:	6840      	ldr	r0, [r0, #4]
10003024:	7803      	ldrb	r3, [r0, #0]
10003026:	2b2a      	cmp	r3, #42	; 0x2a
10003028:	d00b      	beq.n	10003042 <_ZNKSt9type_infoeqERKS_+0x26>
1000302a:	6849      	ldr	r1, [r1, #4]
1000302c:	780b      	ldrb	r3, [r1, #0]
1000302e:	3b2a      	subs	r3, #42	; 0x2a
10003030:	425a      	negs	r2, r3
10003032:	4153      	adcs	r3, r2
10003034:	18c9      	adds	r1, r1, r3
10003036:	f000 fe9b 	bl	10003d70 <strcmp>
1000303a:	4243      	negs	r3, r0
1000303c:	4158      	adcs	r0, r3
1000303e:	b2c0      	uxtb	r0, r0
10003040:	bd10      	pop	{r4, pc}
10003042:	2000      	movs	r0, #0
10003044:	e7fc      	b.n	10003040 <_ZNKSt9type_infoeqERKS_+0x24>
10003046:	2001      	movs	r0, #1
10003048:	e7fa      	b.n	10003040 <_ZNKSt9type_infoeqERKS_+0x24>
1000304a:	46c0      	nop			; (mov r8, r8)

1000304c <_ZNKSt11logic_error4whatEv>:
1000304c:	6840      	ldr	r0, [r0, #4]
1000304e:	4770      	bx	lr

10003050 <_ZNSt11logic_errorD1Ev>:
10003050:	4b0d      	ldr	r3, [pc, #52]	; (10003088 <_ZNSt11logic_errorD1Ev+0x38>)
10003052:	b510      	push	{r4, lr}
10003054:	3308      	adds	r3, #8
10003056:	6003      	str	r3, [r0, #0]
10003058:	6843      	ldr	r3, [r0, #4]
1000305a:	0004      	movs	r4, r0
1000305c:	0018      	movs	r0, r3
1000305e:	4a0b      	ldr	r2, [pc, #44]	; (1000308c <_ZNSt11logic_errorD1Ev+0x3c>)
10003060:	380c      	subs	r0, #12
10003062:	b082      	sub	sp, #8
10003064:	4290      	cmp	r0, r2
10003066:	d105      	bne.n	10003074 <_ZNSt11logic_errorD1Ev+0x24>
10003068:	0020      	movs	r0, r4
1000306a:	f7ff fb11 	bl	10002690 <_ZNSt9exceptionD1Ev>
1000306e:	0020      	movs	r0, r4
10003070:	b002      	add	sp, #8
10003072:	bd10      	pop	{r4, pc}
10003074:	3b04      	subs	r3, #4
10003076:	681a      	ldr	r2, [r3, #0]
10003078:	1e51      	subs	r1, r2, #1
1000307a:	6019      	str	r1, [r3, #0]
1000307c:	2a00      	cmp	r2, #0
1000307e:	dcf3      	bgt.n	10003068 <_ZNSt11logic_errorD1Ev+0x18>
10003080:	a901      	add	r1, sp, #4
10003082:	f000 f8bf 	bl	10003204 <_ZNSs4_Rep10_M_destroyERKSaIcE>
10003086:	e7ef      	b.n	10003068 <_ZNSt11logic_errorD1Ev+0x18>
10003088:	10004588 	.word	0x10004588
1000308c:	20001b54 	.word	0x20001b54

10003090 <_ZNSt11logic_errorD0Ev>:
10003090:	b510      	push	{r4, lr}
10003092:	0004      	movs	r4, r0
10003094:	f7ff ffdc 	bl	10003050 <_ZNSt11logic_errorD1Ev>
10003098:	0020      	movs	r0, r4
1000309a:	f7fe fe11 	bl	10001cc0 <_ZdlPv>
1000309e:	0020      	movs	r0, r4
100030a0:	bd10      	pop	{r4, pc}
100030a2:	46c0      	nop			; (mov r8, r8)

100030a4 <_ZNSt12length_errorD1Ev>:
100030a4:	b510      	push	{r4, lr}
100030a6:	0004      	movs	r4, r0
100030a8:	4b03      	ldr	r3, [pc, #12]	; (100030b8 <_ZNSt12length_errorD1Ev+0x14>)
100030aa:	3308      	adds	r3, #8
100030ac:	6003      	str	r3, [r0, #0]
100030ae:	f7ff ffcf 	bl	10003050 <_ZNSt11logic_errorD1Ev>
100030b2:	0020      	movs	r0, r4
100030b4:	bd10      	pop	{r4, pc}
100030b6:	46c0      	nop			; (mov r8, r8)
100030b8:	1000459c 	.word	0x1000459c

100030bc <_ZNSt12length_errorD0Ev>:
100030bc:	b510      	push	{r4, lr}
100030be:	0004      	movs	r4, r0
100030c0:	4b04      	ldr	r3, [pc, #16]	; (100030d4 <_ZNSt12length_errorD0Ev+0x18>)
100030c2:	3308      	adds	r3, #8
100030c4:	6003      	str	r3, [r0, #0]
100030c6:	f7ff ffc3 	bl	10003050 <_ZNSt11logic_errorD1Ev>
100030ca:	0020      	movs	r0, r4
100030cc:	f7fe fdf8 	bl	10001cc0 <_ZdlPv>
100030d0:	0020      	movs	r0, r4
100030d2:	bd10      	pop	{r4, pc}
100030d4:	1000459c 	.word	0x1000459c

100030d8 <_ZNSt12out_of_rangeD1Ev>:
100030d8:	b510      	push	{r4, lr}
100030da:	0004      	movs	r4, r0
100030dc:	4b03      	ldr	r3, [pc, #12]	; (100030ec <_ZNSt12out_of_rangeD1Ev+0x14>)
100030de:	3308      	adds	r3, #8
100030e0:	6003      	str	r3, [r0, #0]
100030e2:	f7ff ffb5 	bl	10003050 <_ZNSt11logic_errorD1Ev>
100030e6:	0020      	movs	r0, r4
100030e8:	bd10      	pop	{r4, pc}
100030ea:	46c0      	nop			; (mov r8, r8)
100030ec:	100045b0 	.word	0x100045b0

100030f0 <_ZNSt12out_of_rangeD0Ev>:
100030f0:	b510      	push	{r4, lr}
100030f2:	0004      	movs	r4, r0
100030f4:	4b04      	ldr	r3, [pc, #16]	; (10003108 <_ZNSt12out_of_rangeD0Ev+0x18>)
100030f6:	3308      	adds	r3, #8
100030f8:	6003      	str	r3, [r0, #0]
100030fa:	f7ff ffa9 	bl	10003050 <_ZNSt11logic_errorD1Ev>
100030fe:	0020      	movs	r0, r4
10003100:	f7fe fdde 	bl	10001cc0 <_ZdlPv>
10003104:	0020      	movs	r0, r4
10003106:	bd10      	pop	{r4, pc}
10003108:	100045b0 	.word	0x100045b0

1000310c <_ZNSt11logic_errorC1EPKc>:
1000310c:	b510      	push	{r4, lr}
1000310e:	4b07      	ldr	r3, [pc, #28]	; (1000312c <_ZNSt11logic_errorC1EPKc+0x20>)
10003110:	b082      	sub	sp, #8
10003112:	0004      	movs	r4, r0
10003114:	aa01      	add	r2, sp, #4
10003116:	c008      	stmia	r0!, {r3}
10003118:	f000 f88a 	bl	10003230 <_ZNSsC1EPKcRKSaIcE>
1000311c:	0020      	movs	r0, r4
1000311e:	b002      	add	sp, #8
10003120:	bd10      	pop	{r4, pc}
10003122:	0020      	movs	r0, r4
10003124:	f7ff fab4 	bl	10002690 <_ZNSt9exceptionD1Ev>
10003128:	f7ff f9dc 	bl	100024e4 <__cxa_end_cleanup>
1000312c:	10004590 	.word	0x10004590

10003130 <_ZNSt12length_errorC1EPKc>:
10003130:	b510      	push	{r4, lr}
10003132:	0004      	movs	r4, r0
10003134:	f7ff ffea 	bl	1000310c <_ZNSt11logic_errorC1EPKc>
10003138:	4b01      	ldr	r3, [pc, #4]	; (10003140 <_ZNSt12length_errorC1EPKc+0x10>)
1000313a:	0020      	movs	r0, r4
1000313c:	6023      	str	r3, [r4, #0]
1000313e:	bd10      	pop	{r4, pc}
10003140:	100045a4 	.word	0x100045a4

10003144 <_ZNSt12out_of_rangeC1EPKc>:
10003144:	b510      	push	{r4, lr}
10003146:	0004      	movs	r4, r0
10003148:	f7ff ffe0 	bl	1000310c <_ZNSt11logic_errorC1EPKc>
1000314c:	4b01      	ldr	r3, [pc, #4]	; (10003154 <_ZNSt12out_of_rangeC1EPKc+0x10>)
1000314e:	0020      	movs	r0, r4
10003150:	6023      	str	r3, [r4, #0]
10003152:	bd10      	pop	{r4, pc}
10003154:	100045b8 	.word	0x100045b8

10003158 <_ZNSs4_Rep9_S_createEjjRKSaIcE>:
10003158:	4b16      	ldr	r3, [pc, #88]	; (100031b4 <_ZNSs4_Rep9_S_createEjjRKSaIcE+0x5c>)
1000315a:	b510      	push	{r4, lr}
1000315c:	0004      	movs	r4, r0
1000315e:	4298      	cmp	r0, r3
10003160:	d825      	bhi.n	100031ae <_ZNSs4_Rep9_S_createEjjRKSaIcE+0x56>
10003162:	4288      	cmp	r0, r1
10003164:	d915      	bls.n	10003192 <_ZNSs4_Rep9_S_createEjjRKSaIcE+0x3a>
10003166:	004b      	lsls	r3, r1, #1
10003168:	4298      	cmp	r0, r3
1000316a:	d200      	bcs.n	1000316e <_ZNSs4_Rep9_S_createEjjRKSaIcE+0x16>
1000316c:	001c      	movs	r4, r3
1000316e:	0023      	movs	r3, r4
10003170:	0020      	movs	r0, r4
10003172:	2280      	movs	r2, #128	; 0x80
10003174:	331d      	adds	r3, #29
10003176:	300d      	adds	r0, #13
10003178:	0152      	lsls	r2, r2, #5
1000317a:	4293      	cmp	r3, r2
1000317c:	d911      	bls.n	100031a2 <_ZNSs4_Rep9_S_createEjjRKSaIcE+0x4a>
1000317e:	428c      	cmp	r4, r1
10003180:	d90f      	bls.n	100031a2 <_ZNSs4_Rep9_S_createEjjRKSaIcE+0x4a>
10003182:	4694      	mov	ip, r2
10003184:	051b      	lsls	r3, r3, #20
10003186:	0d1b      	lsrs	r3, r3, #20
10003188:	4464      	add	r4, ip
1000318a:	1ae4      	subs	r4, r4, r3
1000318c:	4b09      	ldr	r3, [pc, #36]	; (100031b4 <_ZNSs4_Rep9_S_createEjjRKSaIcE+0x5c>)
1000318e:	429c      	cmp	r4, r3
10003190:	d80b      	bhi.n	100031aa <_ZNSs4_Rep9_S_createEjjRKSaIcE+0x52>
10003192:	0020      	movs	r0, r4
10003194:	300d      	adds	r0, #13
10003196:	f7fe fd8f 	bl	10001cb8 <_Znwj>
1000319a:	2300      	movs	r3, #0
1000319c:	6044      	str	r4, [r0, #4]
1000319e:	6083      	str	r3, [r0, #8]
100031a0:	bd10      	pop	{r4, pc}
100031a2:	2800      	cmp	r0, #0
100031a4:	daf7      	bge.n	10003196 <_ZNSs4_Rep9_S_createEjjRKSaIcE+0x3e>
100031a6:	f7fe ffad 	bl	10002104 <_ZSt17__throw_bad_allocv>
100031aa:	001c      	movs	r4, r3
100031ac:	e7f1      	b.n	10003192 <_ZNSs4_Rep9_S_createEjjRKSaIcE+0x3a>
100031ae:	4802      	ldr	r0, [pc, #8]	; (100031b8 <_ZNSs4_Rep9_S_createEjjRKSaIcE+0x60>)
100031b0:	f7fe ffd0 	bl	10002154 <_ZSt20__throw_length_errorPKc>
100031b4:	3ffffffc 	.word	0x3ffffffc
100031b8:	100045c4 	.word	0x100045c4

100031bc <_ZNSs12_S_constructIPKcEEPcT_S3_RKSaIcESt20forward_iterator_tag.part.0>:
100031bc:	b5f8      	push	{r3, r4, r5, r6, r7, lr}
100031be:	1a0c      	subs	r4, r1, r0
100031c0:	0006      	movs	r6, r0
100031c2:	2100      	movs	r1, #0
100031c4:	0020      	movs	r0, r4
100031c6:	f7ff ffc7 	bl	10003158 <_ZNSs4_Rep9_S_createEjjRKSaIcE>
100031ca:	0007      	movs	r7, r0
100031cc:	0005      	movs	r5, r0
100031ce:	370c      	adds	r7, #12
100031d0:	2c01      	cmp	r4, #1
100031d2:	d009      	beq.n	100031e8 <_ZNSs12_S_constructIPKcEEPcT_S3_RKSaIcESt20forward_iterator_tag.part.0+0x2c>
100031d4:	0022      	movs	r2, r4
100031d6:	0031      	movs	r1, r6
100031d8:	0038      	movs	r0, r7
100031da:	f7fe fd67 	bl	10001cac <__wrap___aeabi_memcpy>
100031de:	4b08      	ldr	r3, [pc, #32]	; (10003200 <_ZNSs12_S_constructIPKcEEPcT_S3_RKSaIcESt20forward_iterator_tag.part.0+0x44>)
100031e0:	429d      	cmp	r5, r3
100031e2:	d106      	bne.n	100031f2 <_ZNSs12_S_constructIPKcEEPcT_S3_RKSaIcESt20forward_iterator_tag.part.0+0x36>
100031e4:	0038      	movs	r0, r7
100031e6:	bdf8      	pop	{r3, r4, r5, r6, r7, pc}
100031e8:	7833      	ldrb	r3, [r6, #0]
100031ea:	7303      	strb	r3, [r0, #12]
100031ec:	4b04      	ldr	r3, [pc, #16]	; (10003200 <_ZNSs12_S_constructIPKcEEPcT_S3_RKSaIcESt20forward_iterator_tag.part.0+0x44>)
100031ee:	429d      	cmp	r5, r3
100031f0:	d0f8      	beq.n	100031e4 <_ZNSs12_S_constructIPKcEEPcT_S3_RKSaIcESt20forward_iterator_tag.part.0+0x28>
100031f2:	2300      	movs	r3, #0
100031f4:	602c      	str	r4, [r5, #0]
100031f6:	192c      	adds	r4, r5, r4
100031f8:	60ab      	str	r3, [r5, #8]
100031fa:	7323      	strb	r3, [r4, #12]
100031fc:	e7f2      	b.n	100031e4 <_ZNSs12_S_constructIPKcEEPcT_S3_RKSaIcESt20forward_iterator_tag.part.0+0x28>
100031fe:	46c0      	nop			; (mov r8, r8)
10003200:	20001b54 	.word	0x20001b54

10003204 <_ZNSs4_Rep10_M_destroyERKSaIcE>:
10003204:	b510      	push	{r4, lr}
10003206:	f7fe fd5b 	bl	10001cc0 <_ZdlPv>
1000320a:	bd10      	pop	{r4, pc}

1000320c <_ZNSs12_S_constructIPKcEEPcT_S3_RKSaIcESt20forward_iterator_tag>:
1000320c:	b510      	push	{r4, lr}
1000320e:	4288      	cmp	r0, r1
10003210:	d004      	beq.n	1000321c <_ZNSs12_S_constructIPKcEEPcT_S3_RKSaIcESt20forward_iterator_tag+0x10>
10003212:	2800      	cmp	r0, #0
10003214:	d004      	beq.n	10003220 <_ZNSs12_S_constructIPKcEEPcT_S3_RKSaIcESt20forward_iterator_tag+0x14>
10003216:	f7ff ffd1 	bl	100031bc <_ZNSs12_S_constructIPKcEEPcT_S3_RKSaIcESt20forward_iterator_tag.part.0>
1000321a:	bd10      	pop	{r4, pc}
1000321c:	4802      	ldr	r0, [pc, #8]	; (10003228 <_ZNSs12_S_constructIPKcEEPcT_S3_RKSaIcESt20forward_iterator_tag+0x1c>)
1000321e:	e7fc      	b.n	1000321a <_ZNSs12_S_constructIPKcEEPcT_S3_RKSaIcESt20forward_iterator_tag+0xe>
10003220:	4802      	ldr	r0, [pc, #8]	; (1000322c <_ZNSs12_S_constructIPKcEEPcT_S3_RKSaIcESt20forward_iterator_tag+0x20>)
10003222:	f7fe ff7f 	bl	10002124 <_ZSt19__throw_logic_errorPKc>
10003226:	46c0      	nop			; (mov r8, r8)
10003228:	20001b60 	.word	0x20001b60
1000322c:	100045dc 	.word	0x100045dc

10003230 <_ZNSsC1EPKcRKSaIcE>:
10003230:	b570      	push	{r4, r5, r6, lr}
10003232:	0005      	movs	r5, r0
10003234:	000c      	movs	r4, r1
10003236:	0016      	movs	r6, r2
10003238:	2900      	cmp	r1, #0
1000323a:	d00b      	beq.n	10003254 <_ZNSsC1EPKcRKSaIcE+0x24>
1000323c:	0008      	movs	r0, r1
1000323e:	f000 fddb 	bl	10003df8 <strlen>
10003242:	1821      	adds	r1, r4, r0
10003244:	0032      	movs	r2, r6
10003246:	2300      	movs	r3, #0
10003248:	0020      	movs	r0, r4
1000324a:	f7ff ffdf 	bl	1000320c <_ZNSs12_S_constructIPKcEEPcT_S3_RKSaIcESt20forward_iterator_tag>
1000324e:	6028      	str	r0, [r5, #0]
10003250:	0028      	movs	r0, r5
10003252:	bd70      	pop	{r4, r5, r6, pc}
10003254:	2101      	movs	r1, #1
10003256:	4249      	negs	r1, r1
10003258:	e7f4      	b.n	10003244 <_ZNSsC1EPKcRKSaIcE+0x14>
1000325a:	46c0      	nop			; (mov r8, r8)

1000325c <_ZNK10__cxxabiv117__class_type_info11__do_upcastEPKS0_PPv>:
1000325c:	b530      	push	{r4, r5, lr}
1000325e:	b085      	sub	sp, #20
10003260:	2300      	movs	r3, #0
10003262:	0014      	movs	r4, r2
10003264:	466a      	mov	r2, sp
10003266:	7113      	strb	r3, [r2, #4]
10003268:	2210      	movs	r2, #16
1000326a:	9300      	str	r3, [sp, #0]
1000326c:	9303      	str	r3, [sp, #12]
1000326e:	6803      	ldr	r3, [r0, #0]
10003270:	9202      	str	r2, [sp, #8]
10003272:	699d      	ldr	r5, [r3, #24]
10003274:	6822      	ldr	r2, [r4, #0]
10003276:	466b      	mov	r3, sp
10003278:	47a8      	blx	r5
1000327a:	466b      	mov	r3, sp
1000327c:	791a      	ldrb	r2, [r3, #4]
1000327e:	2306      	movs	r3, #6
10003280:	2000      	movs	r0, #0
10003282:	4013      	ands	r3, r2
10003284:	2b06      	cmp	r3, #6
10003286:	d102      	bne.n	1000328e <_ZNK10__cxxabiv117__class_type_info11__do_upcastEPKS0_PPv+0x32>
10003288:	9b00      	ldr	r3, [sp, #0]
1000328a:	3001      	adds	r0, #1
1000328c:	6023      	str	r3, [r4, #0]
1000328e:	b005      	add	sp, #20
10003290:	bd30      	pop	{r4, r5, pc}
10003292:	46c0      	nop			; (mov r8, r8)

10003294 <_ZNK10__cxxabiv117__class_type_info20__do_find_public_srcEiPKvPKS0_S2_>:
10003294:	9b00      	ldr	r3, [sp, #0]
10003296:	1a98      	subs	r0, r3, r2
10003298:	1e42      	subs	r2, r0, #1
1000329a:	4190      	sbcs	r0, r2
1000329c:	2304      	movs	r3, #4
1000329e:	4240      	negs	r0, r0
100032a0:	4398      	bics	r0, r3
100032a2:	3006      	adds	r0, #6
100032a4:	4770      	bx	lr
100032a6:	46c0      	nop			; (mov r8, r8)

100032a8 <_ZN10__cxxabiv117__class_type_infoD1Ev>:
100032a8:	b510      	push	{r4, lr}
100032aa:	0004      	movs	r4, r0
100032ac:	4b03      	ldr	r3, [pc, #12]	; (100032bc <_ZN10__cxxabiv117__class_type_infoD1Ev+0x14>)
100032ae:	3308      	adds	r3, #8
100032b0:	6003      	str	r3, [r0, #0]
100032b2:	f7ff feaf 	bl	10003014 <_ZNSt9type_infoD1Ev>
100032b6:	0020      	movs	r0, r4
100032b8:	bd10      	pop	{r4, pc}
100032ba:	46c0      	nop			; (mov r8, r8)
100032bc:	10004638 	.word	0x10004638

100032c0 <_ZN10__cxxabiv117__class_type_infoD0Ev>:
100032c0:	b510      	push	{r4, lr}
100032c2:	0004      	movs	r4, r0
100032c4:	4b05      	ldr	r3, [pc, #20]	; (100032dc <_ZN10__cxxabiv117__class_type_infoD0Ev+0x1c>)
100032c6:	3308      	adds	r3, #8
100032c8:	6003      	str	r3, [r0, #0]
100032ca:	f7ff fea3 	bl	10003014 <_ZNSt9type_infoD1Ev>
100032ce:	0020      	movs	r0, r4
100032d0:	2108      	movs	r1, #8
100032d2:	f7fe fcf9 	bl	10001cc8 <_ZdlPvj>
100032d6:	0020      	movs	r0, r4
100032d8:	bd10      	pop	{r4, pc}
100032da:	46c0      	nop			; (mov r8, r8)
100032dc:	10004638 	.word	0x10004638

100032e0 <_ZNK10__cxxabiv117__class_type_info12__do_dyncastEiNS0_10__sub_kindEPKS0_PKvS3_S5_RNS0_16__dyncast_resultE>:
100032e0:	b570      	push	{r4, r5, r6, lr}
100032e2:	0016      	movs	r6, r2
100032e4:	001d      	movs	r5, r3
100032e6:	9a06      	ldr	r2, [sp, #24]
100032e8:	9b04      	ldr	r3, [sp, #16]
100032ea:	0004      	movs	r4, r0
100032ec:	4293      	cmp	r3, r2
100032ee:	d00e      	beq.n	1000330e <_ZNK10__cxxabiv117__class_type_info12__do_dyncastEiNS0_10__sub_kindEPKS0_PKvS3_S5_RNS0_16__dyncast_resultE+0x2e>
100032f0:	0029      	movs	r1, r5
100032f2:	0020      	movs	r0, r4
100032f4:	f7ff fe92 	bl	1000301c <_ZNKSt9type_infoeqERKS_>
100032f8:	2800      	cmp	r0, #0
100032fa:	d006      	beq.n	1000330a <_ZNK10__cxxabiv117__class_type_info12__do_dyncastEiNS0_10__sub_kindEPKS0_PKvS3_S5_RNS0_16__dyncast_resultE+0x2a>
100032fc:	9b07      	ldr	r3, [sp, #28]
100032fe:	9a04      	ldr	r2, [sp, #16]
10003300:	711e      	strb	r6, [r3, #4]
10003302:	601a      	str	r2, [r3, #0]
10003304:	2301      	movs	r3, #1
10003306:	9a07      	ldr	r2, [sp, #28]
10003308:	7193      	strb	r3, [r2, #6]
1000330a:	2000      	movs	r0, #0
1000330c:	bd70      	pop	{r4, r5, r6, pc}
1000330e:	9905      	ldr	r1, [sp, #20]
10003310:	f7ff fe84 	bl	1000301c <_ZNKSt9type_infoeqERKS_>
10003314:	2800      	cmp	r0, #0
10003316:	d0eb      	beq.n	100032f0 <_ZNK10__cxxabiv117__class_type_info12__do_dyncastEiNS0_10__sub_kindEPKS0_PKvS3_S5_RNS0_16__dyncast_resultE+0x10>
10003318:	9b07      	ldr	r3, [sp, #28]
1000331a:	715e      	strb	r6, [r3, #5]
1000331c:	e7f5      	b.n	1000330a <_ZNK10__cxxabiv117__class_type_info12__do_dyncastEiNS0_10__sub_kindEPKS0_PKvS3_S5_RNS0_16__dyncast_resultE+0x2a>
1000331e:	46c0      	nop			; (mov r8, r8)

10003320 <_ZNK10__cxxabiv117__class_type_info11__do_upcastEPKS0_PKvRNS0_15__upcast_resultE>:
10003320:	b570      	push	{r4, r5, r6, lr}
10003322:	0015      	movs	r5, r2
10003324:	001c      	movs	r4, r3
10003326:	f7ff fe79 	bl	1000301c <_ZNKSt9type_infoeqERKS_>
1000332a:	2800      	cmp	r0, #0
1000332c:	d004      	beq.n	10003338 <_ZNK10__cxxabiv117__class_type_info11__do_upcastEPKS0_PKvRNS0_15__upcast_resultE+0x18>
1000332e:	2308      	movs	r3, #8
10003330:	60e3      	str	r3, [r4, #12]
10003332:	3b02      	subs	r3, #2
10003334:	6025      	str	r5, [r4, #0]
10003336:	7123      	strb	r3, [r4, #4]
10003338:	bd70      	pop	{r4, r5, r6, pc}
1000333a:	46c0      	nop			; (mov r8, r8)

1000333c <_ZNK10__cxxabiv117__class_type_info10__do_catchEPKSt9type_infoPPvj>:
1000333c:	b5f8      	push	{r3, r4, r5, r6, r7, lr}
1000333e:	0005      	movs	r5, r0
10003340:	000c      	movs	r4, r1
10003342:	0017      	movs	r7, r2
10003344:	001e      	movs	r6, r3
10003346:	f7ff fe69 	bl	1000301c <_ZNKSt9type_infoeqERKS_>
1000334a:	2800      	cmp	r0, #0
1000334c:	d107      	bne.n	1000335e <_ZNK10__cxxabiv117__class_type_info10__do_catchEPKSt9type_infoPPvj+0x22>
1000334e:	2e03      	cmp	r6, #3
10003350:	d805      	bhi.n	1000335e <_ZNK10__cxxabiv117__class_type_info10__do_catchEPKSt9type_infoPPvj+0x22>
10003352:	6823      	ldr	r3, [r4, #0]
10003354:	003a      	movs	r2, r7
10003356:	0029      	movs	r1, r5
10003358:	0020      	movs	r0, r4
1000335a:	695b      	ldr	r3, [r3, #20]
1000335c:	4798      	blx	r3
1000335e:	bdf8      	pop	{r3, r4, r5, r6, r7, pc}

10003360 <_ZN10__cxxabiv1L24__is_gxx_exception_classEPc>:
10003360:	7802      	ldrb	r2, [r0, #0]
10003362:	0003      	movs	r3, r0
10003364:	2000      	movs	r0, #0
10003366:	2a47      	cmp	r2, #71	; 0x47
10003368:	d000      	beq.n	1000336c <_ZN10__cxxabiv1L24__is_gxx_exception_classEPc+0xc>
1000336a:	4770      	bx	lr
1000336c:	785a      	ldrb	r2, [r3, #1]
1000336e:	2a4e      	cmp	r2, #78	; 0x4e
10003370:	d1fb      	bne.n	1000336a <_ZN10__cxxabiv1L24__is_gxx_exception_classEPc+0xa>
10003372:	789a      	ldrb	r2, [r3, #2]
10003374:	2a55      	cmp	r2, #85	; 0x55
10003376:	d1f8      	bne.n	1000336a <_ZN10__cxxabiv1L24__is_gxx_exception_classEPc+0xa>
10003378:	78da      	ldrb	r2, [r3, #3]
1000337a:	2a43      	cmp	r2, #67	; 0x43
1000337c:	d1f5      	bne.n	1000336a <_ZN10__cxxabiv1L24__is_gxx_exception_classEPc+0xa>
1000337e:	791a      	ldrb	r2, [r3, #4]
10003380:	2a43      	cmp	r2, #67	; 0x43
10003382:	d1f2      	bne.n	1000336a <_ZN10__cxxabiv1L24__is_gxx_exception_classEPc+0xa>
10003384:	795a      	ldrb	r2, [r3, #5]
10003386:	2a2b      	cmp	r2, #43	; 0x2b
10003388:	d1ef      	bne.n	1000336a <_ZN10__cxxabiv1L24__is_gxx_exception_classEPc+0xa>
1000338a:	799a      	ldrb	r2, [r3, #6]
1000338c:	2a2b      	cmp	r2, #43	; 0x2b
1000338e:	d1ec      	bne.n	1000336a <_ZN10__cxxabiv1L24__is_gxx_exception_classEPc+0xa>
10003390:	79db      	ldrb	r3, [r3, #7]
10003392:	3a2a      	subs	r2, #42	; 0x2a
10003394:	429a      	cmp	r2, r3
10003396:	4140      	adcs	r0, r0
10003398:	b2c0      	uxtb	r0, r0
1000339a:	e7e6      	b.n	1000336a <_ZN10__cxxabiv1L24__is_gxx_exception_classEPc+0xa>

1000339c <__cxa_call_terminate>:
1000339c:	b510      	push	{r4, lr}
1000339e:	1e04      	subs	r4, r0, #0
100033a0:	d006      	beq.n	100033b0 <__cxa_call_terminate+0x14>
100033a2:	f000 f88b 	bl	100034bc <__cxa_begin_catch>
100033a6:	0020      	movs	r0, r4
100033a8:	f7ff ffda 	bl	10003360 <_ZN10__cxxabiv1L24__is_gxx_exception_classEPc>
100033ac:	2800      	cmp	r0, #0
100033ae:	d101      	bne.n	100033b4 <__cxa_call_terminate+0x18>
100033b0:	f7ff fce6 	bl	10002d80 <_ZSt9terminatev>
100033b4:	3c20      	subs	r4, #32
100033b6:	68e0      	ldr	r0, [r4, #12]
100033b8:	f7ff fcce 	bl	10002d58 <_ZN10__cxxabiv111__terminateEPFvvE>

100033bc <__cxa_call_unexpected>:
100033bc:	b5f0      	push	{r4, r5, r6, r7, lr}
100033be:	46de      	mov	lr, fp
100033c0:	464e      	mov	r6, r9
100033c2:	4657      	mov	r7, sl
100033c4:	4645      	mov	r5, r8
100033c6:	b5e0      	push	{r5, r6, r7, lr}
100033c8:	b085      	sub	sp, #20
100033ca:	0006      	movs	r6, r0
100033cc:	f7ff ffc8 	bl	10003360 <_ZN10__cxxabiv1L24__is_gxx_exception_classEPc>
100033d0:	1e04      	subs	r4, r0, #0
100033d2:	d00b      	beq.n	100033ec <__cxa_call_unexpected+0x30>
100033d4:	0033      	movs	r3, r6
100033d6:	3b20      	subs	r3, #32
100033d8:	689a      	ldr	r2, [r3, #8]
100033da:	68dc      	ldr	r4, [r3, #12]
100033dc:	6ab3      	ldr	r3, [r6, #40]	; 0x28
100033de:	4691      	mov	r9, r2
100033e0:	469a      	mov	sl, r3
100033e2:	2300      	movs	r3, #0
100033e4:	6b37      	ldr	r7, [r6, #48]	; 0x30
100033e6:	4698      	mov	r8, r3
100033e8:	6b75      	ldr	r5, [r6, #52]	; 0x34
100033ea:	e005      	b.n	100033f8 <__cxa_call_unexpected+0x3c>
100033ec:	2301      	movs	r3, #1
100033ee:	4681      	mov	r9, r0
100033f0:	4698      	mov	r8, r3
100033f2:	0005      	movs	r5, r0
100033f4:	0007      	movs	r7, r0
100033f6:	4682      	mov	sl, r0
100033f8:	0030      	movs	r0, r6
100033fa:	f000 f85f 	bl	100034bc <__cxa_begin_catch>
100033fe:	4643      	mov	r3, r8
10003400:	2b00      	cmp	r3, #0
10003402:	d001      	beq.n	10003408 <__cxa_call_unexpected+0x4c>
10003404:	f7ff fcc8 	bl	10002d98 <_ZSt10unexpectedv>
10003408:	4648      	mov	r0, r9
1000340a:	f7ff fcc1 	bl	10002d90 <_ZN10__cxxabiv112__unexpectedEPFvvE>
1000340e:	f000 f855 	bl	100034bc <__cxa_begin_catch>
10003412:	4643      	mov	r3, r8
10003414:	2b00      	cmp	r3, #0
10003416:	d001      	beq.n	1000341c <__cxa_call_unexpected+0x60>
10003418:	f7ff fcb2 	bl	10002d80 <_ZSt9terminatev>
1000341c:	f7ff f948 	bl	100026b0 <__cxa_get_globals_fast>
10003420:	2327      	movs	r3, #39	; 0x27
10003422:	6806      	ldr	r6, [r0, #0]
10003424:	5cf2      	ldrb	r2, [r6, r3]
10003426:	0033      	movs	r3, r6
10003428:	3378      	adds	r3, #120	; 0x78
1000342a:	2a01      	cmp	r2, #1
1000342c:	d100      	bne.n	10003430 <__cxa_call_unexpected+0x74>
1000342e:	6833      	ldr	r3, [r6, #0]
10003430:	08bf      	lsrs	r7, r7, #2
10003432:	9302      	str	r3, [sp, #8]
10003434:	00bb      	lsls	r3, r7, #2
10003436:	9301      	str	r3, [sp, #4]
10003438:	2300      	movs	r3, #0
1000343a:	4699      	mov	r9, r3
1000343c:	3620      	adds	r6, #32
1000343e:	45ca      	cmp	sl, r9
10003440:	dd20      	ble.n	10003484 <__cxa_call_unexpected+0xc8>
10003442:	682f      	ldr	r7, [r5, #0]
10003444:	2f00      	cmp	r7, #0
10003446:	d000      	beq.n	1000344a <__cxa_call_unexpected+0x8e>
10003448:	197f      	adds	r7, r7, r5
1000344a:	2200      	movs	r2, #0
1000344c:	0039      	movs	r1, r7
1000344e:	0030      	movs	r0, r6
10003450:	ab02      	add	r3, sp, #8
10003452:	f7ff f84d 	bl	100024f0 <__cxa_type_match>
10003456:	2800      	cmp	r0, #0
10003458:	d001      	beq.n	1000345e <__cxa_call_unexpected+0xa2>
1000345a:	f7ff fd0b 	bl	10002e74 <__cxa_rethrow>
1000345e:	683b      	ldr	r3, [r7, #0]
10003460:	9003      	str	r0, [sp, #12]
10003462:	691b      	ldr	r3, [r3, #16]
10003464:	0038      	movs	r0, r7
10003466:	469b      	mov	fp, r3
10003468:	4911      	ldr	r1, [pc, #68]	; (100034b0 <__cxa_call_unexpected+0xf4>)
1000346a:	2301      	movs	r3, #1
1000346c:	aa03      	add	r2, sp, #12
1000346e:	47d8      	blx	fp
10003470:	2800      	cmp	r0, #0
10003472:	d000      	beq.n	10003476 <__cxa_call_unexpected+0xba>
10003474:	4680      	mov	r8, r0
10003476:	2301      	movs	r3, #1
10003478:	469c      	mov	ip, r3
1000347a:	9b01      	ldr	r3, [sp, #4]
1000347c:	44e1      	add	r9, ip
1000347e:	469c      	mov	ip, r3
10003480:	4465      	add	r5, ip
10003482:	e7dc      	b.n	1000343e <__cxa_call_unexpected+0x82>
10003484:	4643      	mov	r3, r8
10003486:	2b00      	cmp	r3, #0
10003488:	d008      	beq.n	1000349c <__cxa_call_unexpected+0xe0>
1000348a:	2004      	movs	r0, #4
1000348c:	f7fe ffec 	bl	10002468 <__cxa_allocate_exception>
10003490:	4b08      	ldr	r3, [pc, #32]	; (100034b4 <__cxa_call_unexpected+0xf8>)
10003492:	4a09      	ldr	r2, [pc, #36]	; (100034b8 <__cxa_call_unexpected+0xfc>)
10003494:	4906      	ldr	r1, [pc, #24]	; (100034b0 <__cxa_call_unexpected+0xf4>)
10003496:	6003      	str	r3, [r0, #0]
10003498:	f7ff fcd2 	bl	10002e40 <__cxa_throw>
1000349c:	0020      	movs	r0, r4
1000349e:	f7ff fc5b 	bl	10002d58 <_ZN10__cxxabiv111__terminateEPFvvE>
100034a2:	f000 f845 	bl	10003530 <__cxa_end_catch>
100034a6:	f000 f843 	bl	10003530 <__cxa_end_catch>
100034aa:	f7ff f81b 	bl	100024e4 <__cxa_end_cleanup>
100034ae:	46c0      	nop			; (mov r8, r8)
100034b0:	100043f0 	.word	0x100043f0
100034b4:	10004474 	.word	0x10004474
100034b8:	10002695 	.word	0x10002695

100034bc <__cxa_begin_catch>:
100034bc:	b570      	push	{r4, r5, r6, lr}
100034be:	0004      	movs	r4, r0
100034c0:	f7ff f8fa 	bl	100026b8 <__cxa_get_globals>
100034c4:	0022      	movs	r2, r4
100034c6:	7823      	ldrb	r3, [r4, #0]
100034c8:	6805      	ldr	r5, [r0, #0]
100034ca:	3a20      	subs	r2, #32
100034cc:	2b47      	cmp	r3, #71	; 0x47
100034ce:	d004      	beq.n	100034da <__cxa_begin_catch+0x1e>
100034d0:	2d00      	cmp	r5, #0
100034d2:	d12b      	bne.n	1000352c <__cxa_begin_catch+0x70>
100034d4:	6002      	str	r2, [r0, #0]
100034d6:	0028      	movs	r0, r5
100034d8:	bd70      	pop	{r4, r5, r6, pc}
100034da:	7863      	ldrb	r3, [r4, #1]
100034dc:	2b4e      	cmp	r3, #78	; 0x4e
100034de:	d1f7      	bne.n	100034d0 <__cxa_begin_catch+0x14>
100034e0:	78a3      	ldrb	r3, [r4, #2]
100034e2:	2b55      	cmp	r3, #85	; 0x55
100034e4:	d1f4      	bne.n	100034d0 <__cxa_begin_catch+0x14>
100034e6:	78e3      	ldrb	r3, [r4, #3]
100034e8:	2b43      	cmp	r3, #67	; 0x43
100034ea:	d1f1      	bne.n	100034d0 <__cxa_begin_catch+0x14>
100034ec:	7923      	ldrb	r3, [r4, #4]
100034ee:	2b43      	cmp	r3, #67	; 0x43
100034f0:	d1ee      	bne.n	100034d0 <__cxa_begin_catch+0x14>
100034f2:	7963      	ldrb	r3, [r4, #5]
100034f4:	2b2b      	cmp	r3, #43	; 0x2b
100034f6:	d1eb      	bne.n	100034d0 <__cxa_begin_catch+0x14>
100034f8:	79a3      	ldrb	r3, [r4, #6]
100034fa:	2b2b      	cmp	r3, #43	; 0x2b
100034fc:	d1e8      	bne.n	100034d0 <__cxa_begin_catch+0x14>
100034fe:	79e3      	ldrb	r3, [r4, #7]
10003500:	2b01      	cmp	r3, #1
10003502:	d8e5      	bhi.n	100034d0 <__cxa_begin_catch+0x14>
10003504:	6953      	ldr	r3, [r2, #20]
10003506:	2b00      	cmp	r3, #0
10003508:	db0d      	blt.n	10003526 <__cxa_begin_catch+0x6a>
1000350a:	3301      	adds	r3, #1
1000350c:	6153      	str	r3, [r2, #20]
1000350e:	6843      	ldr	r3, [r0, #4]
10003510:	3b01      	subs	r3, #1
10003512:	6043      	str	r3, [r0, #4]
10003514:	4295      	cmp	r5, r2
10003516:	d001      	beq.n	1000351c <__cxa_begin_catch+0x60>
10003518:	6115      	str	r5, [r2, #16]
1000351a:	6002      	str	r2, [r0, #0]
1000351c:	0020      	movs	r0, r4
1000351e:	6a65      	ldr	r5, [r4, #36]	; 0x24
10003520:	f000 fe36 	bl	10004190 <___Unwind_Complete_veneer>
10003524:	e7d7      	b.n	100034d6 <__cxa_begin_catch+0x1a>
10003526:	2101      	movs	r1, #1
10003528:	1acb      	subs	r3, r1, r3
1000352a:	e7ef      	b.n	1000350c <__cxa_begin_catch+0x50>
1000352c:	f7ff fc28 	bl	10002d80 <_ZSt9terminatev>

10003530 <__cxa_end_catch>:
10003530:	b510      	push	{r4, lr}
10003532:	f7ff f8bd 	bl	100026b0 <__cxa_get_globals_fast>
10003536:	6803      	ldr	r3, [r0, #0]
10003538:	2b00      	cmp	r3, #0
1000353a:	d009      	beq.n	10003550 <__cxa_end_catch+0x20>
1000353c:	2220      	movs	r2, #32
1000353e:	5c9a      	ldrb	r2, [r3, r2]
10003540:	2a47      	cmp	r2, #71	; 0x47
10003542:	d006      	beq.n	10003552 <__cxa_end_catch+0x22>
10003544:	2200      	movs	r2, #0
10003546:	3320      	adds	r3, #32
10003548:	6002      	str	r2, [r0, #0]
1000354a:	0018      	movs	r0, r3
1000354c:	f000 fdf8 	bl	10004140 <___Unwind_DeleteException_veneer>
10003550:	bd10      	pop	{r4, pc}
10003552:	3a26      	subs	r2, #38	; 0x26
10003554:	5c9a      	ldrb	r2, [r3, r2]
10003556:	2a4e      	cmp	r2, #78	; 0x4e
10003558:	d1f4      	bne.n	10003544 <__cxa_end_catch+0x14>
1000355a:	3a2c      	subs	r2, #44	; 0x2c
1000355c:	5c9a      	ldrb	r2, [r3, r2]
1000355e:	2a55      	cmp	r2, #85	; 0x55
10003560:	d1f0      	bne.n	10003544 <__cxa_end_catch+0x14>
10003562:	3a32      	subs	r2, #50	; 0x32
10003564:	5c9a      	ldrb	r2, [r3, r2]
10003566:	2a43      	cmp	r2, #67	; 0x43
10003568:	d1ec      	bne.n	10003544 <__cxa_end_catch+0x14>
1000356a:	3a1f      	subs	r2, #31
1000356c:	5c9a      	ldrb	r2, [r3, r2]
1000356e:	2a43      	cmp	r2, #67	; 0x43
10003570:	d1e8      	bne.n	10003544 <__cxa_end_catch+0x14>
10003572:	3a1e      	subs	r2, #30
10003574:	5c9a      	ldrb	r2, [r3, r2]
10003576:	2a2b      	cmp	r2, #43	; 0x2b
10003578:	d1e4      	bne.n	10003544 <__cxa_end_catch+0x14>
1000357a:	3a05      	subs	r2, #5
1000357c:	5c9a      	ldrb	r2, [r3, r2]
1000357e:	2a2b      	cmp	r2, #43	; 0x2b
10003580:	d1e0      	bne.n	10003544 <__cxa_end_catch+0x14>
10003582:	3a04      	subs	r2, #4
10003584:	5c9a      	ldrb	r2, [r3, r2]
10003586:	2a01      	cmp	r2, #1
10003588:	d8dc      	bhi.n	10003544 <__cxa_end_catch+0x14>
1000358a:	695a      	ldr	r2, [r3, #20]
1000358c:	2a00      	cmp	r2, #0
1000358e:	db08      	blt.n	100035a2 <__cxa_end_catch+0x72>
10003590:	1e51      	subs	r1, r2, #1
10003592:	2a01      	cmp	r2, #1
10003594:	d00c      	beq.n	100035b0 <__cxa_end_catch+0x80>
10003596:	1c4a      	adds	r2, r1, #1
10003598:	d001      	beq.n	1000359e <__cxa_end_catch+0x6e>
1000359a:	6159      	str	r1, [r3, #20]
1000359c:	e7d8      	b.n	10003550 <__cxa_end_catch+0x20>
1000359e:	f7ff fbef 	bl	10002d80 <_ZSt9terminatev>
100035a2:	1c51      	adds	r1, r2, #1
100035a4:	3201      	adds	r2, #1
100035a6:	d1f8      	bne.n	1000359a <__cxa_end_catch+0x6a>
100035a8:	691a      	ldr	r2, [r3, #16]
100035aa:	6002      	str	r2, [r0, #0]
100035ac:	6159      	str	r1, [r3, #20]
100035ae:	e7cf      	b.n	10003550 <__cxa_end_catch+0x20>
100035b0:	691a      	ldr	r2, [r3, #16]
100035b2:	3320      	adds	r3, #32
100035b4:	6002      	str	r2, [r0, #0]
100035b6:	0018      	movs	r0, r3
100035b8:	f000 fdc2 	bl	10004140 <___Unwind_DeleteException_veneer>
100035bc:	e7c8      	b.n	10003550 <__cxa_end_catch+0x20>
100035be:	46c0      	nop			; (mov r8, r8)

100035c0 <abort>:
100035c0:	b510      	push	{r4, lr}
100035c2:	2006      	movs	r0, #6
100035c4:	f000 fb8c 	bl	10003ce0 <raise>
100035c8:	2001      	movs	r0, #1
100035ca:	f7fd fe61 	bl	10001290 <_exit>
100035ce:	46c0      	nop			; (mov r8, r8)

100035d0 <malloc>:
100035d0:	b510      	push	{r4, lr}
100035d2:	4b03      	ldr	r3, [pc, #12]	; (100035e0 <malloc+0x10>)
100035d4:	0001      	movs	r1, r0
100035d6:	6818      	ldr	r0, [r3, #0]
100035d8:	f000 f80e 	bl	100035f8 <_malloc_r>
100035dc:	bd10      	pop	{r4, pc}
100035de:	46c0      	nop			; (mov r8, r8)
100035e0:	20001188 	.word	0x20001188

100035e4 <free>:
100035e4:	b510      	push	{r4, lr}
100035e6:	4b03      	ldr	r3, [pc, #12]	; (100035f4 <free+0x10>)
100035e8:	0001      	movs	r1, r0
100035ea:	6818      	ldr	r0, [r3, #0]
100035ec:	f000 fc88 	bl	10003f00 <_free_r>
100035f0:	bd10      	pop	{r4, pc}
100035f2:	46c0      	nop			; (mov r8, r8)
100035f4:	20001188 	.word	0x20001188

100035f8 <_malloc_r>:
100035f8:	b5f0      	push	{r4, r5, r6, r7, lr}
100035fa:	4657      	mov	r7, sl
100035fc:	4645      	mov	r5, r8
100035fe:	46de      	mov	lr, fp
10003600:	464e      	mov	r6, r9
10003602:	b5e0      	push	{r5, r6, r7, lr}
10003604:	000d      	movs	r5, r1
10003606:	350b      	adds	r5, #11
10003608:	b083      	sub	sp, #12
1000360a:	0007      	movs	r7, r0
1000360c:	2d16      	cmp	r5, #22
1000360e:	d822      	bhi.n	10003656 <_malloc_r+0x5e>
10003610:	2910      	cmp	r1, #16
10003612:	d900      	bls.n	10003616 <_malloc_r+0x1e>
10003614:	e0bb      	b.n	1000378e <_malloc_r+0x196>
10003616:	f000 fab5 	bl	10003b84 <__malloc_lock>
1000361a:	2510      	movs	r5, #16
1000361c:	2318      	movs	r3, #24
1000361e:	2002      	movs	r0, #2
10003620:	4ed1      	ldr	r6, [pc, #836]	; (10003968 <_malloc_r+0x370>)
10003622:	18f3      	adds	r3, r6, r3
10003624:	001a      	movs	r2, r3
10003626:	685c      	ldr	r4, [r3, #4]
10003628:	3a08      	subs	r2, #8
1000362a:	4294      	cmp	r4, r2
1000362c:	d100      	bne.n	10003630 <_malloc_r+0x38>
1000362e:	e0be      	b.n	100037ae <_malloc_r+0x1b6>
10003630:	2303      	movs	r3, #3
10003632:	6862      	ldr	r2, [r4, #4]
10003634:	439a      	bics	r2, r3
10003636:	0013      	movs	r3, r2
10003638:	68e2      	ldr	r2, [r4, #12]
1000363a:	68a1      	ldr	r1, [r4, #8]
1000363c:	60ca      	str	r2, [r1, #12]
1000363e:	6091      	str	r1, [r2, #8]
10003640:	2201      	movs	r2, #1
10003642:	18e3      	adds	r3, r4, r3
10003644:	6859      	ldr	r1, [r3, #4]
10003646:	0038      	movs	r0, r7
10003648:	430a      	orrs	r2, r1
1000364a:	605a      	str	r2, [r3, #4]
1000364c:	f000 fa9c 	bl	10003b88 <__malloc_unlock>
10003650:	0020      	movs	r0, r4
10003652:	3008      	adds	r0, #8
10003654:	e09e      	b.n	10003794 <_malloc_r+0x19c>
10003656:	2307      	movs	r3, #7
10003658:	439d      	bics	r5, r3
1000365a:	d500      	bpl.n	1000365e <_malloc_r+0x66>
1000365c:	e097      	b.n	1000378e <_malloc_r+0x196>
1000365e:	42a9      	cmp	r1, r5
10003660:	d900      	bls.n	10003664 <_malloc_r+0x6c>
10003662:	e094      	b.n	1000378e <_malloc_r+0x196>
10003664:	f000 fa8e 	bl	10003b84 <__malloc_lock>
10003668:	23f8      	movs	r3, #248	; 0xf8
1000366a:	33ff      	adds	r3, #255	; 0xff
1000366c:	429d      	cmp	r5, r3
1000366e:	d800      	bhi.n	10003672 <_malloc_r+0x7a>
10003670:	e1ad      	b.n	100039ce <_malloc_r+0x3d6>
10003672:	0a68      	lsrs	r0, r5, #9
10003674:	d100      	bne.n	10003678 <_malloc_r+0x80>
10003676:	e094      	b.n	100037a2 <_malloc_r+0x1aa>
10003678:	2804      	cmp	r0, #4
1000367a:	d900      	bls.n	1000367e <_malloc_r+0x86>
1000367c:	e180      	b.n	10003980 <_malloc_r+0x388>
1000367e:	2338      	movs	r3, #56	; 0x38
10003680:	4698      	mov	r8, r3
10003682:	09a8      	lsrs	r0, r5, #6
10003684:	4480      	add	r8, r0
10003686:	3039      	adds	r0, #57	; 0x39
10003688:	00c1      	lsls	r1, r0, #3
1000368a:	4eb7      	ldr	r6, [pc, #732]	; (10003968 <_malloc_r+0x370>)
1000368c:	1871      	adds	r1, r6, r1
1000368e:	3908      	subs	r1, #8
10003690:	68cc      	ldr	r4, [r1, #12]
10003692:	42a1      	cmp	r1, r4
10003694:	d018      	beq.n	100036c8 <_malloc_r+0xd0>
10003696:	2303      	movs	r3, #3
10003698:	6862      	ldr	r2, [r4, #4]
1000369a:	439a      	bics	r2, r3
1000369c:	0013      	movs	r3, r2
1000369e:	1b52      	subs	r2, r2, r5
100036a0:	2a0f      	cmp	r2, #15
100036a2:	dd00      	ble.n	100036a6 <_malloc_r+0xae>
100036a4:	e136      	b.n	10003914 <_malloc_r+0x31c>
100036a6:	2a00      	cmp	r2, #0
100036a8:	dac6      	bge.n	10003638 <_malloc_r+0x40>
100036aa:	2303      	movs	r3, #3
100036ac:	469c      	mov	ip, r3
100036ae:	e008      	b.n	100036c2 <_malloc_r+0xca>
100036b0:	4662      	mov	r2, ip
100036b2:	6863      	ldr	r3, [r4, #4]
100036b4:	4393      	bics	r3, r2
100036b6:	1b5a      	subs	r2, r3, r5
100036b8:	2a0f      	cmp	r2, #15
100036ba:	dd00      	ble.n	100036be <_malloc_r+0xc6>
100036bc:	e12a      	b.n	10003914 <_malloc_r+0x31c>
100036be:	2a00      	cmp	r2, #0
100036c0:	daba      	bge.n	10003638 <_malloc_r+0x40>
100036c2:	68e4      	ldr	r4, [r4, #12]
100036c4:	42a1      	cmp	r1, r4
100036c6:	d1f3      	bne.n	100036b0 <_malloc_r+0xb8>
100036c8:	0032      	movs	r2, r6
100036ca:	6934      	ldr	r4, [r6, #16]
100036cc:	3208      	adds	r2, #8
100036ce:	4294      	cmp	r4, r2
100036d0:	d100      	bne.n	100036d4 <_malloc_r+0xdc>
100036d2:	e077      	b.n	100037c4 <_malloc_r+0x1cc>
100036d4:	2303      	movs	r3, #3
100036d6:	6861      	ldr	r1, [r4, #4]
100036d8:	4399      	bics	r1, r3
100036da:	4689      	mov	r9, r1
100036dc:	000b      	movs	r3, r1
100036de:	1b49      	subs	r1, r1, r5
100036e0:	290f      	cmp	r1, #15
100036e2:	dd00      	ble.n	100036e6 <_malloc_r+0xee>
100036e4:	e177      	b.n	100039d6 <_malloc_r+0x3de>
100036e6:	6172      	str	r2, [r6, #20]
100036e8:	6132      	str	r2, [r6, #16]
100036ea:	2900      	cmp	r1, #0
100036ec:	daa8      	bge.n	10003640 <_malloc_r+0x48>
100036ee:	4a9f      	ldr	r2, [pc, #636]	; (1000396c <_malloc_r+0x374>)
100036f0:	4591      	cmp	r9, r2
100036f2:	d900      	bls.n	100036f6 <_malloc_r+0xfe>
100036f4:	e110      	b.n	10003918 <_malloc_r+0x320>
100036f6:	08da      	lsrs	r2, r3, #3
100036f8:	2301      	movs	r3, #1
100036fa:	1091      	asrs	r1, r2, #2
100036fc:	408b      	lsls	r3, r1
100036fe:	00d2      	lsls	r2, r2, #3
10003700:	6871      	ldr	r1, [r6, #4]
10003702:	1992      	adds	r2, r2, r6
10003704:	430b      	orrs	r3, r1
10003706:	6891      	ldr	r1, [r2, #8]
10003708:	6073      	str	r3, [r6, #4]
1000370a:	60e2      	str	r2, [r4, #12]
1000370c:	60a1      	str	r1, [r4, #8]
1000370e:	6094      	str	r4, [r2, #8]
10003710:	60cc      	str	r4, [r1, #12]
10003712:	2101      	movs	r1, #1
10003714:	1082      	asrs	r2, r0, #2
10003716:	4091      	lsls	r1, r2
10003718:	4299      	cmp	r1, r3
1000371a:	d859      	bhi.n	100037d0 <_malloc_r+0x1d8>
1000371c:	420b      	tst	r3, r1
1000371e:	d105      	bne.n	1000372c <_malloc_r+0x134>
10003720:	2203      	movs	r2, #3
10003722:	4390      	bics	r0, r2
10003724:	0049      	lsls	r1, r1, #1
10003726:	3004      	adds	r0, #4
10003728:	420b      	tst	r3, r1
1000372a:	d0fb      	beq.n	10003724 <_malloc_r+0x12c>
1000372c:	2303      	movs	r3, #3
1000372e:	4698      	mov	r8, r3
10003730:	00c3      	lsls	r3, r0, #3
10003732:	4699      	mov	r9, r3
10003734:	44b1      	add	r9, r6
10003736:	46cc      	mov	ip, r9
10003738:	4682      	mov	sl, r0
1000373a:	4663      	mov	r3, ip
1000373c:	68dc      	ldr	r4, [r3, #12]
1000373e:	45a4      	cmp	ip, r4
10003740:	d107      	bne.n	10003752 <_malloc_r+0x15a>
10003742:	e129      	b.n	10003998 <_malloc_r+0x3a0>
10003744:	2a00      	cmp	r2, #0
10003746:	db00      	blt.n	1000374a <_malloc_r+0x152>
10003748:	e132      	b.n	100039b0 <_malloc_r+0x3b8>
1000374a:	68e4      	ldr	r4, [r4, #12]
1000374c:	45a4      	cmp	ip, r4
1000374e:	d100      	bne.n	10003752 <_malloc_r+0x15a>
10003750:	e122      	b.n	10003998 <_malloc_r+0x3a0>
10003752:	4642      	mov	r2, r8
10003754:	6863      	ldr	r3, [r4, #4]
10003756:	4393      	bics	r3, r2
10003758:	1b5a      	subs	r2, r3, r5
1000375a:	2a0f      	cmp	r2, #15
1000375c:	ddf2      	ble.n	10003744 <_malloc_r+0x14c>
1000375e:	2001      	movs	r0, #1
10003760:	4680      	mov	r8, r0
10003762:	1961      	adds	r1, r4, r5
10003764:	4305      	orrs	r5, r0
10003766:	6065      	str	r5, [r4, #4]
10003768:	68a0      	ldr	r0, [r4, #8]
1000376a:	68e5      	ldr	r5, [r4, #12]
1000376c:	3608      	adds	r6, #8
1000376e:	60c5      	str	r5, [r0, #12]
10003770:	60a8      	str	r0, [r5, #8]
10003772:	4640      	mov	r0, r8
10003774:	60f1      	str	r1, [r6, #12]
10003776:	60b1      	str	r1, [r6, #8]
10003778:	4310      	orrs	r0, r2
1000377a:	6048      	str	r0, [r1, #4]
1000377c:	60ce      	str	r6, [r1, #12]
1000377e:	608e      	str	r6, [r1, #8]
10003780:	0038      	movs	r0, r7
10003782:	50e2      	str	r2, [r4, r3]
10003784:	f000 fa00 	bl	10003b88 <__malloc_unlock>
10003788:	0020      	movs	r0, r4
1000378a:	3008      	adds	r0, #8
1000378c:	e002      	b.n	10003794 <_malloc_r+0x19c>
1000378e:	230c      	movs	r3, #12
10003790:	2000      	movs	r0, #0
10003792:	603b      	str	r3, [r7, #0]
10003794:	b003      	add	sp, #12
10003796:	bc3c      	pop	{r2, r3, r4, r5}
10003798:	4690      	mov	r8, r2
1000379a:	4699      	mov	r9, r3
1000379c:	46a2      	mov	sl, r4
1000379e:	46ab      	mov	fp, r5
100037a0:	bdf0      	pop	{r4, r5, r6, r7, pc}
100037a2:	2180      	movs	r1, #128	; 0x80
100037a4:	233f      	movs	r3, #63	; 0x3f
100037a6:	0089      	lsls	r1, r1, #2
100037a8:	2040      	movs	r0, #64	; 0x40
100037aa:	4698      	mov	r8, r3
100037ac:	e76d      	b.n	1000368a <_malloc_r+0x92>
100037ae:	68dc      	ldr	r4, [r3, #12]
100037b0:	3002      	adds	r0, #2
100037b2:	42a3      	cmp	r3, r4
100037b4:	d000      	beq.n	100037b8 <_malloc_r+0x1c0>
100037b6:	e73b      	b.n	10003630 <_malloc_r+0x38>
100037b8:	0032      	movs	r2, r6
100037ba:	6934      	ldr	r4, [r6, #16]
100037bc:	3208      	adds	r2, #8
100037be:	4294      	cmp	r4, r2
100037c0:	d000      	beq.n	100037c4 <_malloc_r+0x1cc>
100037c2:	e787      	b.n	100036d4 <_malloc_r+0xdc>
100037c4:	2101      	movs	r1, #1
100037c6:	6873      	ldr	r3, [r6, #4]
100037c8:	1082      	asrs	r2, r0, #2
100037ca:	4091      	lsls	r1, r2
100037cc:	4299      	cmp	r1, r3
100037ce:	d9a5      	bls.n	1000371c <_malloc_r+0x124>
100037d0:	2303      	movs	r3, #3
100037d2:	68b4      	ldr	r4, [r6, #8]
100037d4:	6862      	ldr	r2, [r4, #4]
100037d6:	439a      	bics	r2, r3
100037d8:	4690      	mov	r8, r2
100037da:	42aa      	cmp	r2, r5
100037dc:	d303      	bcc.n	100037e6 <_malloc_r+0x1ee>
100037de:	1b53      	subs	r3, r2, r5
100037e0:	2b0f      	cmp	r3, #15
100037e2:	dd00      	ble.n	100037e6 <_malloc_r+0x1ee>
100037e4:	e088      	b.n	100038f8 <_malloc_r+0x300>
100037e6:	0023      	movs	r3, r4
100037e8:	4443      	add	r3, r8
100037ea:	4a61      	ldr	r2, [pc, #388]	; (10003970 <_malloc_r+0x378>)
100037ec:	9301      	str	r3, [sp, #4]
100037ee:	4b61      	ldr	r3, [pc, #388]	; (10003974 <_malloc_r+0x37c>)
100037f0:	4693      	mov	fp, r2
100037f2:	469a      	mov	sl, r3
100037f4:	6812      	ldr	r2, [r2, #0]
100037f6:	681b      	ldr	r3, [r3, #0]
100037f8:	18eb      	adds	r3, r5, r3
100037fa:	3201      	adds	r2, #1
100037fc:	d100      	bne.n	10003800 <_malloc_r+0x208>
100037fe:	e139      	b.n	10003a74 <_malloc_r+0x47c>
10003800:	4a5d      	ldr	r2, [pc, #372]	; (10003978 <_malloc_r+0x380>)
10003802:	4694      	mov	ip, r2
10003804:	4463      	add	r3, ip
10003806:	0b1b      	lsrs	r3, r3, #12
10003808:	031b      	lsls	r3, r3, #12
1000380a:	9300      	str	r3, [sp, #0]
1000380c:	9900      	ldr	r1, [sp, #0]
1000380e:	0038      	movs	r0, r7
10003810:	f000 f9bc 	bl	10003b8c <_sbrk_r>
10003814:	0003      	movs	r3, r0
10003816:	4681      	mov	r9, r0
10003818:	3301      	adds	r3, #1
1000381a:	d100      	bne.n	1000381e <_malloc_r+0x226>
1000381c:	e0f6      	b.n	10003a0c <_malloc_r+0x414>
1000381e:	9b01      	ldr	r3, [sp, #4]
10003820:	4283      	cmp	r3, r0
10003822:	d900      	bls.n	10003826 <_malloc_r+0x22e>
10003824:	e0f0      	b.n	10003a08 <_malloc_r+0x410>
10003826:	4651      	mov	r1, sl
10003828:	6849      	ldr	r1, [r1, #4]
1000382a:	9b00      	ldr	r3, [sp, #0]
1000382c:	468c      	mov	ip, r1
1000382e:	4651      	mov	r1, sl
10003830:	4463      	add	r3, ip
10003832:	604b      	str	r3, [r1, #4]
10003834:	9901      	ldr	r1, [sp, #4]
10003836:	001a      	movs	r2, r3
10003838:	4549      	cmp	r1, r9
1000383a:	d100      	bne.n	1000383e <_malloc_r+0x246>
1000383c:	e14f      	b.n	10003ade <_malloc_r+0x4e6>
1000383e:	465b      	mov	r3, fp
10003840:	681b      	ldr	r3, [r3, #0]
10003842:	3301      	adds	r3, #1
10003844:	d100      	bne.n	10003848 <_malloc_r+0x250>
10003846:	e154      	b.n	10003af2 <_malloc_r+0x4fa>
10003848:	464b      	mov	r3, r9
1000384a:	9901      	ldr	r1, [sp, #4]
1000384c:	1a5b      	subs	r3, r3, r1
1000384e:	189a      	adds	r2, r3, r2
10003850:	4653      	mov	r3, sl
10003852:	605a      	str	r2, [r3, #4]
10003854:	2307      	movs	r3, #7
10003856:	464a      	mov	r2, r9
10003858:	401a      	ands	r2, r3
1000385a:	9201      	str	r2, [sp, #4]
1000385c:	d100      	bne.n	10003860 <_malloc_r+0x268>
1000385e:	e113      	b.n	10003a88 <_malloc_r+0x490>
10003860:	2108      	movs	r1, #8
10003862:	464b      	mov	r3, r9
10003864:	4689      	mov	r9, r1
10003866:	1a9b      	subs	r3, r3, r2
10003868:	4499      	add	r9, r3
1000386a:	9900      	ldr	r1, [sp, #0]
1000386c:	4b43      	ldr	r3, [pc, #268]	; (1000397c <_malloc_r+0x384>)
1000386e:	4449      	add	r1, r9
10003870:	1a9b      	subs	r3, r3, r2
10003872:	1a5b      	subs	r3, r3, r1
10003874:	051b      	lsls	r3, r3, #20
10003876:	0d1b      	lsrs	r3, r3, #20
10003878:	9100      	str	r1, [sp, #0]
1000387a:	0038      	movs	r0, r7
1000387c:	0019      	movs	r1, r3
1000387e:	469b      	mov	fp, r3
10003880:	f000 f984 	bl	10003b8c <_sbrk_r>
10003884:	1c43      	adds	r3, r0, #1
10003886:	d100      	bne.n	1000388a <_malloc_r+0x292>
10003888:	e14f      	b.n	10003b2a <_malloc_r+0x532>
1000388a:	464b      	mov	r3, r9
1000388c:	1ac0      	subs	r0, r0, r3
1000388e:	0003      	movs	r3, r0
10003890:	445b      	add	r3, fp
10003892:	9300      	str	r3, [sp, #0]
10003894:	4653      	mov	r3, sl
10003896:	4652      	mov	r2, sl
10003898:	685b      	ldr	r3, [r3, #4]
1000389a:	2101      	movs	r1, #1
1000389c:	445b      	add	r3, fp
1000389e:	6053      	str	r3, [r2, #4]
100038a0:	464a      	mov	r2, r9
100038a2:	4648      	mov	r0, r9
100038a4:	60b2      	str	r2, [r6, #8]
100038a6:	9a00      	ldr	r2, [sp, #0]
100038a8:	430a      	orrs	r2, r1
100038aa:	6042      	str	r2, [r0, #4]
100038ac:	42b4      	cmp	r4, r6
100038ae:	d100      	bne.n	100038b2 <_malloc_r+0x2ba>
100038b0:	e123      	b.n	10003afa <_malloc_r+0x502>
100038b2:	4642      	mov	r2, r8
100038b4:	2a0f      	cmp	r2, #15
100038b6:	d800      	bhi.n	100038ba <_malloc_r+0x2c2>
100038b8:	e121      	b.n	10003afe <_malloc_r+0x506>
100038ba:	2007      	movs	r0, #7
100038bc:	3a0c      	subs	r2, #12
100038be:	4382      	bics	r2, r0
100038c0:	6860      	ldr	r0, [r4, #4]
100038c2:	4001      	ands	r1, r0
100038c4:	2005      	movs	r0, #5
100038c6:	4311      	orrs	r1, r2
100038c8:	6061      	str	r1, [r4, #4]
100038ca:	18a1      	adds	r1, r4, r2
100038cc:	6048      	str	r0, [r1, #4]
100038ce:	6088      	str	r0, [r1, #8]
100038d0:	2a0f      	cmp	r2, #15
100038d2:	d900      	bls.n	100038d6 <_malloc_r+0x2de>
100038d4:	e134      	b.n	10003b40 <_malloc_r+0x548>
100038d6:	464a      	mov	r2, r9
100038d8:	464c      	mov	r4, r9
100038da:	6852      	ldr	r2, [r2, #4]
100038dc:	4651      	mov	r1, sl
100038de:	6ac9      	ldr	r1, [r1, #44]	; 0x2c
100038e0:	4299      	cmp	r1, r3
100038e2:	d201      	bcs.n	100038e8 <_malloc_r+0x2f0>
100038e4:	4651      	mov	r1, sl
100038e6:	62cb      	str	r3, [r1, #44]	; 0x2c
100038e8:	4651      	mov	r1, sl
100038ea:	6b09      	ldr	r1, [r1, #48]	; 0x30
100038ec:	4299      	cmp	r1, r3
100038ee:	d300      	bcc.n	100038f2 <_malloc_r+0x2fa>
100038f0:	e08e      	b.n	10003a10 <_malloc_r+0x418>
100038f2:	4651      	mov	r1, sl
100038f4:	630b      	str	r3, [r1, #48]	; 0x30
100038f6:	e08b      	b.n	10003a10 <_malloc_r+0x418>
100038f8:	2201      	movs	r2, #1
100038fa:	0029      	movs	r1, r5
100038fc:	4313      	orrs	r3, r2
100038fe:	4311      	orrs	r1, r2
10003900:	1965      	adds	r5, r4, r5
10003902:	6061      	str	r1, [r4, #4]
10003904:	0038      	movs	r0, r7
10003906:	60b5      	str	r5, [r6, #8]
10003908:	606b      	str	r3, [r5, #4]
1000390a:	f000 f93d 	bl	10003b88 <__malloc_unlock>
1000390e:	0020      	movs	r0, r4
10003910:	3008      	adds	r0, #8
10003912:	e73f      	b.n	10003794 <_malloc_r+0x19c>
10003914:	4640      	mov	r0, r8
10003916:	e6d7      	b.n	100036c8 <_malloc_r+0xd0>
10003918:	0a5a      	lsrs	r2, r3, #9
1000391a:	2a04      	cmp	r2, #4
1000391c:	d96e      	bls.n	100039fc <_malloc_r+0x404>
1000391e:	2a14      	cmp	r2, #20
10003920:	d900      	bls.n	10003924 <_malloc_r+0x32c>
10003922:	e0c1      	b.n	10003aa8 <_malloc_r+0x4b0>
10003924:	0011      	movs	r1, r2
10003926:	325c      	adds	r2, #92	; 0x5c
10003928:	315b      	adds	r1, #91	; 0x5b
1000392a:	00d2      	lsls	r2, r2, #3
1000392c:	2308      	movs	r3, #8
1000392e:	425b      	negs	r3, r3
10003930:	469c      	mov	ip, r3
10003932:	18b2      	adds	r2, r6, r2
10003934:	4494      	add	ip, r2
10003936:	4663      	mov	r3, ip
10003938:	689a      	ldr	r2, [r3, #8]
1000393a:	2303      	movs	r3, #3
1000393c:	4698      	mov	r8, r3
1000393e:	4594      	cmp	ip, r2
10003940:	d100      	bne.n	10003944 <_malloc_r+0x34c>
10003942:	e09a      	b.n	10003a7a <_malloc_r+0x482>
10003944:	4643      	mov	r3, r8
10003946:	6851      	ldr	r1, [r2, #4]
10003948:	4399      	bics	r1, r3
1000394a:	4549      	cmp	r1, r9
1000394c:	d902      	bls.n	10003954 <_malloc_r+0x35c>
1000394e:	6892      	ldr	r2, [r2, #8]
10003950:	4594      	cmp	ip, r2
10003952:	d1f7      	bne.n	10003944 <_malloc_r+0x34c>
10003954:	68d3      	ldr	r3, [r2, #12]
10003956:	469c      	mov	ip, r3
10003958:	6873      	ldr	r3, [r6, #4]
1000395a:	4661      	mov	r1, ip
1000395c:	60a2      	str	r2, [r4, #8]
1000395e:	60e1      	str	r1, [r4, #12]
10003960:	608c      	str	r4, [r1, #8]
10003962:	60d4      	str	r4, [r2, #12]
10003964:	e6d5      	b.n	10003712 <_malloc_r+0x11a>
10003966:	46c0      	nop			; (mov r8, r8)
10003968:	200015c0 	.word	0x200015c0
1000396c:	000001ff 	.word	0x000001ff
10003970:	200015b8 	.word	0x200015b8
10003974:	20001b04 	.word	0x20001b04
10003978:	0000100f 	.word	0x0000100f
1000397c:	00001008 	.word	0x00001008
10003980:	2814      	cmp	r0, #20
10003982:	d952      	bls.n	10003a2a <_malloc_r+0x432>
10003984:	2854      	cmp	r0, #84	; 0x54
10003986:	d900      	bls.n	1000398a <_malloc_r+0x392>
10003988:	e096      	b.n	10003ab8 <_malloc_r+0x4c0>
1000398a:	236e      	movs	r3, #110	; 0x6e
1000398c:	4698      	mov	r8, r3
1000398e:	0b28      	lsrs	r0, r5, #12
10003990:	4480      	add	r8, r0
10003992:	306f      	adds	r0, #111	; 0x6f
10003994:	00c1      	lsls	r1, r0, #3
10003996:	e678      	b.n	1000368a <_malloc_r+0x92>
10003998:	2308      	movs	r3, #8
1000399a:	469b      	mov	fp, r3
1000399c:	3b07      	subs	r3, #7
1000399e:	44dc      	add	ip, fp
100039a0:	469b      	mov	fp, r3
100039a2:	44da      	add	sl, fp
100039a4:	4643      	mov	r3, r8
100039a6:	4652      	mov	r2, sl
100039a8:	4213      	tst	r3, r2
100039aa:	d000      	beq.n	100039ae <_malloc_r+0x3b6>
100039ac:	e6c5      	b.n	1000373a <_malloc_r+0x142>
100039ae:	e04c      	b.n	10003a4a <_malloc_r+0x452>
100039b0:	2201      	movs	r2, #1
100039b2:	18e3      	adds	r3, r4, r3
100039b4:	6859      	ldr	r1, [r3, #4]
100039b6:	0038      	movs	r0, r7
100039b8:	430a      	orrs	r2, r1
100039ba:	605a      	str	r2, [r3, #4]
100039bc:	68e3      	ldr	r3, [r4, #12]
100039be:	68a2      	ldr	r2, [r4, #8]
100039c0:	60d3      	str	r3, [r2, #12]
100039c2:	609a      	str	r2, [r3, #8]
100039c4:	f000 f8e0 	bl	10003b88 <__malloc_unlock>
100039c8:	0020      	movs	r0, r4
100039ca:	3008      	adds	r0, #8
100039cc:	e6e2      	b.n	10003794 <_malloc_r+0x19c>
100039ce:	002b      	movs	r3, r5
100039d0:	08e8      	lsrs	r0, r5, #3
100039d2:	3308      	adds	r3, #8
100039d4:	e624      	b.n	10003620 <_malloc_r+0x28>
100039d6:	2301      	movs	r3, #1
100039d8:	1960      	adds	r0, r4, r5
100039da:	431d      	orrs	r5, r3
100039dc:	6065      	str	r5, [r4, #4]
100039de:	6170      	str	r0, [r6, #20]
100039e0:	6130      	str	r0, [r6, #16]
100039e2:	60c2      	str	r2, [r0, #12]
100039e4:	6082      	str	r2, [r0, #8]
100039e6:	001a      	movs	r2, r3
100039e8:	464b      	mov	r3, r9
100039ea:	430a      	orrs	r2, r1
100039ec:	6042      	str	r2, [r0, #4]
100039ee:	0038      	movs	r0, r7
100039f0:	50e1      	str	r1, [r4, r3]
100039f2:	f000 f8c9 	bl	10003b88 <__malloc_unlock>
100039f6:	0020      	movs	r0, r4
100039f8:	3008      	adds	r0, #8
100039fa:	e6cb      	b.n	10003794 <_malloc_r+0x19c>
100039fc:	099a      	lsrs	r2, r3, #6
100039fe:	0011      	movs	r1, r2
10003a00:	3239      	adds	r2, #57	; 0x39
10003a02:	3138      	adds	r1, #56	; 0x38
10003a04:	00d2      	lsls	r2, r2, #3
10003a06:	e791      	b.n	1000392c <_malloc_r+0x334>
10003a08:	42b4      	cmp	r4, r6
10003a0a:	d060      	beq.n	10003ace <_malloc_r+0x4d6>
10003a0c:	68b4      	ldr	r4, [r6, #8]
10003a0e:	6862      	ldr	r2, [r4, #4]
10003a10:	2303      	movs	r3, #3
10003a12:	439a      	bics	r2, r3
10003a14:	1b53      	subs	r3, r2, r5
10003a16:	42aa      	cmp	r2, r5
10003a18:	d302      	bcc.n	10003a20 <_malloc_r+0x428>
10003a1a:	2b0f      	cmp	r3, #15
10003a1c:	dd00      	ble.n	10003a20 <_malloc_r+0x428>
10003a1e:	e76b      	b.n	100038f8 <_malloc_r+0x300>
10003a20:	0038      	movs	r0, r7
10003a22:	f000 f8b1 	bl	10003b88 <__malloc_unlock>
10003a26:	2000      	movs	r0, #0
10003a28:	e6b4      	b.n	10003794 <_malloc_r+0x19c>
10003a2a:	235b      	movs	r3, #91	; 0x5b
10003a2c:	4698      	mov	r8, r3
10003a2e:	4480      	add	r8, r0
10003a30:	305c      	adds	r0, #92	; 0x5c
10003a32:	00c1      	lsls	r1, r0, #3
10003a34:	e629      	b.n	1000368a <_malloc_r+0x92>
10003a36:	2308      	movs	r3, #8
10003a38:	425b      	negs	r3, r3
10003a3a:	469c      	mov	ip, r3
10003a3c:	44e1      	add	r9, ip
10003a3e:	464b      	mov	r3, r9
10003a40:	689b      	ldr	r3, [r3, #8]
10003a42:	3801      	subs	r0, #1
10003a44:	454b      	cmp	r3, r9
10003a46:	d000      	beq.n	10003a4a <_malloc_r+0x452>
10003a48:	e097      	b.n	10003b7a <_malloc_r+0x582>
10003a4a:	4643      	mov	r3, r8
10003a4c:	4203      	tst	r3, r0
10003a4e:	d1f2      	bne.n	10003a36 <_malloc_r+0x43e>
10003a50:	6873      	ldr	r3, [r6, #4]
10003a52:	438b      	bics	r3, r1
10003a54:	6073      	str	r3, [r6, #4]
10003a56:	0049      	lsls	r1, r1, #1
10003a58:	4299      	cmp	r1, r3
10003a5a:	d900      	bls.n	10003a5e <_malloc_r+0x466>
10003a5c:	e6b8      	b.n	100037d0 <_malloc_r+0x1d8>
10003a5e:	2900      	cmp	r1, #0
10003a60:	d104      	bne.n	10003a6c <_malloc_r+0x474>
10003a62:	e6b5      	b.n	100037d0 <_malloc_r+0x1d8>
10003a64:	2204      	movs	r2, #4
10003a66:	4694      	mov	ip, r2
10003a68:	0049      	lsls	r1, r1, #1
10003a6a:	44e2      	add	sl, ip
10003a6c:	420b      	tst	r3, r1
10003a6e:	d0f9      	beq.n	10003a64 <_malloc_r+0x46c>
10003a70:	4650      	mov	r0, sl
10003a72:	e65d      	b.n	10003730 <_malloc_r+0x138>
10003a74:	3310      	adds	r3, #16
10003a76:	9300      	str	r3, [sp, #0]
10003a78:	e6c8      	b.n	1000380c <_malloc_r+0x214>
10003a7a:	1089      	asrs	r1, r1, #2
10003a7c:	3b02      	subs	r3, #2
10003a7e:	408b      	lsls	r3, r1
10003a80:	6871      	ldr	r1, [r6, #4]
10003a82:	430b      	orrs	r3, r1
10003a84:	6073      	str	r3, [r6, #4]
10003a86:	e768      	b.n	1000395a <_malloc_r+0x362>
10003a88:	9b00      	ldr	r3, [sp, #0]
10003a8a:	0038      	movs	r0, r7
10003a8c:	444b      	add	r3, r9
10003a8e:	051b      	lsls	r3, r3, #20
10003a90:	425b      	negs	r3, r3
10003a92:	0d1b      	lsrs	r3, r3, #20
10003a94:	0019      	movs	r1, r3
10003a96:	469b      	mov	fp, r3
10003a98:	f000 f878 	bl	10003b8c <_sbrk_r>
10003a9c:	1c43      	adds	r3, r0, #1
10003a9e:	d000      	beq.n	10003aa2 <_malloc_r+0x4aa>
10003aa0:	e6f3      	b.n	1000388a <_malloc_r+0x292>
10003aa2:	2300      	movs	r3, #0
10003aa4:	469b      	mov	fp, r3
10003aa6:	e6f5      	b.n	10003894 <_malloc_r+0x29c>
10003aa8:	2a54      	cmp	r2, #84	; 0x54
10003aaa:	d82a      	bhi.n	10003b02 <_malloc_r+0x50a>
10003aac:	0b1a      	lsrs	r2, r3, #12
10003aae:	0011      	movs	r1, r2
10003ab0:	326f      	adds	r2, #111	; 0x6f
10003ab2:	316e      	adds	r1, #110	; 0x6e
10003ab4:	00d2      	lsls	r2, r2, #3
10003ab6:	e739      	b.n	1000392c <_malloc_r+0x334>
10003ab8:	23aa      	movs	r3, #170	; 0xaa
10003aba:	005b      	lsls	r3, r3, #1
10003abc:	4298      	cmp	r0, r3
10003abe:	d82a      	bhi.n	10003b16 <_malloc_r+0x51e>
10003ac0:	3bdd      	subs	r3, #221	; 0xdd
10003ac2:	4698      	mov	r8, r3
10003ac4:	0be8      	lsrs	r0, r5, #15
10003ac6:	4480      	add	r8, r0
10003ac8:	3078      	adds	r0, #120	; 0x78
10003aca:	00c1      	lsls	r1, r0, #3
10003acc:	e5dd      	b.n	1000368a <_malloc_r+0x92>
10003ace:	4653      	mov	r3, sl
10003ad0:	685b      	ldr	r3, [r3, #4]
10003ad2:	9a00      	ldr	r2, [sp, #0]
10003ad4:	469c      	mov	ip, r3
10003ad6:	4653      	mov	r3, sl
10003ad8:	4462      	add	r2, ip
10003ada:	605a      	str	r2, [r3, #4]
10003adc:	e6af      	b.n	1000383e <_malloc_r+0x246>
10003ade:	0509      	lsls	r1, r1, #20
10003ae0:	d000      	beq.n	10003ae4 <_malloc_r+0x4ec>
10003ae2:	e6ac      	b.n	1000383e <_malloc_r+0x246>
10003ae4:	9a00      	ldr	r2, [sp, #0]
10003ae6:	68b4      	ldr	r4, [r6, #8]
10003ae8:	4442      	add	r2, r8
10003aea:	3101      	adds	r1, #1
10003aec:	430a      	orrs	r2, r1
10003aee:	6062      	str	r2, [r4, #4]
10003af0:	e6f4      	b.n	100038dc <_malloc_r+0x2e4>
10003af2:	465b      	mov	r3, fp
10003af4:	464a      	mov	r2, r9
10003af6:	601a      	str	r2, [r3, #0]
10003af8:	e6ac      	b.n	10003854 <_malloc_r+0x25c>
10003afa:	464c      	mov	r4, r9
10003afc:	e6ee      	b.n	100038dc <_malloc_r+0x2e4>
10003afe:	6041      	str	r1, [r0, #4]
10003b00:	e78e      	b.n	10003a20 <_malloc_r+0x428>
10003b02:	21aa      	movs	r1, #170	; 0xaa
10003b04:	0049      	lsls	r1, r1, #1
10003b06:	428a      	cmp	r2, r1
10003b08:	d824      	bhi.n	10003b54 <_malloc_r+0x55c>
10003b0a:	0bda      	lsrs	r2, r3, #15
10003b0c:	0011      	movs	r1, r2
10003b0e:	3278      	adds	r2, #120	; 0x78
10003b10:	3177      	adds	r1, #119	; 0x77
10003b12:	00d2      	lsls	r2, r2, #3
10003b14:	e70a      	b.n	1000392c <_malloc_r+0x334>
10003b16:	4b1a      	ldr	r3, [pc, #104]	; (10003b80 <_malloc_r+0x588>)
10003b18:	4298      	cmp	r0, r3
10003b1a:	d824      	bhi.n	10003b66 <_malloc_r+0x56e>
10003b1c:	237c      	movs	r3, #124	; 0x7c
10003b1e:	4698      	mov	r8, r3
10003b20:	0ca8      	lsrs	r0, r5, #18
10003b22:	4480      	add	r8, r0
10003b24:	307d      	adds	r0, #125	; 0x7d
10003b26:	00c1      	lsls	r1, r0, #3
10003b28:	e5af      	b.n	1000368a <_malloc_r+0x92>
10003b2a:	9a00      	ldr	r2, [sp, #0]
10003b2c:	9b01      	ldr	r3, [sp, #4]
10003b2e:	4694      	mov	ip, r2
10003b30:	464a      	mov	r2, r9
10003b32:	3b08      	subs	r3, #8
10003b34:	4463      	add	r3, ip
10003b36:	1a9b      	subs	r3, r3, r2
10003b38:	9300      	str	r3, [sp, #0]
10003b3a:	2300      	movs	r3, #0
10003b3c:	469b      	mov	fp, r3
10003b3e:	e6a9      	b.n	10003894 <_malloc_r+0x29c>
10003b40:	0021      	movs	r1, r4
10003b42:	0038      	movs	r0, r7
10003b44:	3108      	adds	r1, #8
10003b46:	f000 f9db 	bl	10003f00 <_free_r>
10003b4a:	4653      	mov	r3, sl
10003b4c:	68b4      	ldr	r4, [r6, #8]
10003b4e:	685b      	ldr	r3, [r3, #4]
10003b50:	6862      	ldr	r2, [r4, #4]
10003b52:	e6c3      	b.n	100038dc <_malloc_r+0x2e4>
10003b54:	490a      	ldr	r1, [pc, #40]	; (10003b80 <_malloc_r+0x588>)
10003b56:	428a      	cmp	r2, r1
10003b58:	d80b      	bhi.n	10003b72 <_malloc_r+0x57a>
10003b5a:	0c9a      	lsrs	r2, r3, #18
10003b5c:	0011      	movs	r1, r2
10003b5e:	327d      	adds	r2, #125	; 0x7d
10003b60:	317c      	adds	r1, #124	; 0x7c
10003b62:	00d2      	lsls	r2, r2, #3
10003b64:	e6e2      	b.n	1000392c <_malloc_r+0x334>
10003b66:	21fe      	movs	r1, #254	; 0xfe
10003b68:	237e      	movs	r3, #126	; 0x7e
10003b6a:	0089      	lsls	r1, r1, #2
10003b6c:	207f      	movs	r0, #127	; 0x7f
10003b6e:	4698      	mov	r8, r3
10003b70:	e58b      	b.n	1000368a <_malloc_r+0x92>
10003b72:	22fe      	movs	r2, #254	; 0xfe
10003b74:	217e      	movs	r1, #126	; 0x7e
10003b76:	0092      	lsls	r2, r2, #2
10003b78:	e6d8      	b.n	1000392c <_malloc_r+0x334>
10003b7a:	6873      	ldr	r3, [r6, #4]
10003b7c:	e76b      	b.n	10003a56 <_malloc_r+0x45e>
10003b7e:	46c0      	nop			; (mov r8, r8)
10003b80:	00000554 	.word	0x00000554

10003b84 <__malloc_lock>:
10003b84:	4770      	bx	lr
10003b86:	46c0      	nop			; (mov r8, r8)

10003b88 <__malloc_unlock>:
10003b88:	4770      	bx	lr
10003b8a:	46c0      	nop			; (mov r8, r8)

10003b8c <_sbrk_r>:
10003b8c:	2300      	movs	r3, #0
10003b8e:	b570      	push	{r4, r5, r6, lr}
10003b90:	4c06      	ldr	r4, [pc, #24]	; (10003bac <_sbrk_r+0x20>)
10003b92:	0005      	movs	r5, r0
10003b94:	0008      	movs	r0, r1
10003b96:	6023      	str	r3, [r4, #0]
10003b98:	f7fd fb7c 	bl	10001294 <_sbrk>
10003b9c:	1c43      	adds	r3, r0, #1
10003b9e:	d000      	beq.n	10003ba2 <_sbrk_r+0x16>
10003ba0:	bd70      	pop	{r4, r5, r6, pc}
10003ba2:	6823      	ldr	r3, [r4, #0]
10003ba4:	2b00      	cmp	r3, #0
10003ba6:	d0fb      	beq.n	10003ba0 <_sbrk_r+0x14>
10003ba8:	602b      	str	r3, [r5, #0]
10003baa:	e7f9      	b.n	10003ba0 <_sbrk_r+0x14>
10003bac:	20001e18 	.word	0x20001e18

10003bb0 <_init_signal_r.part.0>:
10003bb0:	b510      	push	{r4, lr}
10003bb2:	2180      	movs	r1, #128	; 0x80
10003bb4:	0004      	movs	r4, r0
10003bb6:	f7ff fd1f 	bl	100035f8 <_malloc_r>
10003bba:	23b7      	movs	r3, #183	; 0xb7
10003bbc:	009b      	lsls	r3, r3, #2
10003bbe:	50e0      	str	r0, [r4, r3]
10003bc0:	2800      	cmp	r0, #0
10003bc2:	d007      	beq.n	10003bd4 <_init_signal_r.part.0+0x24>
10003bc4:	0002      	movs	r2, r0
10003bc6:	2300      	movs	r3, #0
10003bc8:	3280      	adds	r2, #128	; 0x80
10003bca:	c008      	stmia	r0!, {r3}
10003bcc:	4290      	cmp	r0, r2
10003bce:	d1fc      	bne.n	10003bca <_init_signal_r.part.0+0x1a>
10003bd0:	2000      	movs	r0, #0
10003bd2:	bd10      	pop	{r4, pc}
10003bd4:	2001      	movs	r0, #1
10003bd6:	4240      	negs	r0, r0
10003bd8:	e7fb      	b.n	10003bd2 <_init_signal_r.part.0+0x22>
10003bda:	46c0      	nop			; (mov r8, r8)

10003bdc <_init_signal_r>:
10003bdc:	23b7      	movs	r3, #183	; 0xb7
10003bde:	009b      	lsls	r3, r3, #2
10003be0:	58c2      	ldr	r2, [r0, r3]
10003be2:	b510      	push	{r4, lr}
10003be4:	2300      	movs	r3, #0
10003be6:	2a00      	cmp	r2, #0
10003be8:	d001      	beq.n	10003bee <_init_signal_r+0x12>
10003bea:	0018      	movs	r0, r3
10003bec:	bd10      	pop	{r4, pc}
10003bee:	f7ff ffdf 	bl	10003bb0 <_init_signal_r.part.0>
10003bf2:	0003      	movs	r3, r0
10003bf4:	e7f9      	b.n	10003bea <_init_signal_r+0xe>
10003bf6:	46c0      	nop			; (mov r8, r8)

10003bf8 <_signal_r>:
10003bf8:	b5f8      	push	{r3, r4, r5, r6, r7, lr}
10003bfa:	0005      	movs	r5, r0
10003bfc:	000c      	movs	r4, r1
10003bfe:	0016      	movs	r6, r2
10003c00:	291f      	cmp	r1, #31
10003c02:	d809      	bhi.n	10003c18 <_signal_r+0x20>
10003c04:	27b7      	movs	r7, #183	; 0xb7
10003c06:	00bf      	lsls	r7, r7, #2
10003c08:	59c3      	ldr	r3, [r0, r7]
10003c0a:	2b00      	cmp	r3, #0
10003c0c:	d009      	beq.n	10003c22 <_signal_r+0x2a>
10003c0e:	00a4      	lsls	r4, r4, #2
10003c10:	191b      	adds	r3, r3, r4
10003c12:	6818      	ldr	r0, [r3, #0]
10003c14:	601e      	str	r6, [r3, #0]
10003c16:	bdf8      	pop	{r3, r4, r5, r6, r7, pc}
10003c18:	2316      	movs	r3, #22
10003c1a:	6003      	str	r3, [r0, #0]
10003c1c:	2001      	movs	r0, #1
10003c1e:	4240      	negs	r0, r0
10003c20:	e7f9      	b.n	10003c16 <_signal_r+0x1e>
10003c22:	f7ff ffc5 	bl	10003bb0 <_init_signal_r.part.0>
10003c26:	2800      	cmp	r0, #0
10003c28:	d101      	bne.n	10003c2e <_signal_r+0x36>
10003c2a:	59eb      	ldr	r3, [r5, r7]
10003c2c:	e7ef      	b.n	10003c0e <_signal_r+0x16>
10003c2e:	2001      	movs	r0, #1
10003c30:	4240      	negs	r0, r0
10003c32:	e7f0      	b.n	10003c16 <_signal_r+0x1e>

10003c34 <_raise_r>:
10003c34:	b570      	push	{r4, r5, r6, lr}
10003c36:	0005      	movs	r5, r0
10003c38:	000c      	movs	r4, r1
10003c3a:	291f      	cmp	r1, #31
10003c3c:	d822      	bhi.n	10003c84 <_raise_r+0x50>
10003c3e:	23b7      	movs	r3, #183	; 0xb7
10003c40:	009b      	lsls	r3, r3, #2
10003c42:	58c3      	ldr	r3, [r0, r3]
10003c44:	2b00      	cmp	r3, #0
10003c46:	d00e      	beq.n	10003c66 <_raise_r+0x32>
10003c48:	008a      	lsls	r2, r1, #2
10003c4a:	189b      	adds	r3, r3, r2
10003c4c:	681a      	ldr	r2, [r3, #0]
10003c4e:	2a00      	cmp	r2, #0
10003c50:	d009      	beq.n	10003c66 <_raise_r+0x32>
10003c52:	2a01      	cmp	r2, #1
10003c54:	d014      	beq.n	10003c80 <_raise_r+0x4c>
10003c56:	1c51      	adds	r1, r2, #1
10003c58:	d00e      	beq.n	10003c78 <_raise_r+0x44>
10003c5a:	2100      	movs	r1, #0
10003c5c:	0020      	movs	r0, r4
10003c5e:	6019      	str	r1, [r3, #0]
10003c60:	4790      	blx	r2
10003c62:	2000      	movs	r0, #0
10003c64:	bd70      	pop	{r4, r5, r6, pc}
10003c66:	0028      	movs	r0, r5
10003c68:	f000 f87e 	bl	10003d68 <_getpid_r>
10003c6c:	0022      	movs	r2, r4
10003c6e:	0001      	movs	r1, r0
10003c70:	0028      	movs	r0, r5
10003c72:	f000 f865 	bl	10003d40 <_kill_r>
10003c76:	e7f5      	b.n	10003c64 <_raise_r+0x30>
10003c78:	2316      	movs	r3, #22
10003c7a:	6003      	str	r3, [r0, #0]
10003c7c:	2001      	movs	r0, #1
10003c7e:	e7f1      	b.n	10003c64 <_raise_r+0x30>
10003c80:	2000      	movs	r0, #0
10003c82:	e7ef      	b.n	10003c64 <_raise_r+0x30>
10003c84:	2316      	movs	r3, #22
10003c86:	6003      	str	r3, [r0, #0]
10003c88:	2001      	movs	r0, #1
10003c8a:	4240      	negs	r0, r0
10003c8c:	e7ea      	b.n	10003c64 <_raise_r+0x30>
10003c8e:	46c0      	nop			; (mov r8, r8)

10003c90 <__sigtramp_r>:
10003c90:	b570      	push	{r4, r5, r6, lr}
10003c92:	0005      	movs	r5, r0
10003c94:	000c      	movs	r4, r1
10003c96:	291f      	cmp	r1, #31
10003c98:	d81f      	bhi.n	10003cda <__sigtramp_r+0x4a>
10003c9a:	26b7      	movs	r6, #183	; 0xb7
10003c9c:	00b6      	lsls	r6, r6, #2
10003c9e:	5983      	ldr	r3, [r0, r6]
10003ca0:	2b00      	cmp	r3, #0
10003ca2:	d010      	beq.n	10003cc6 <__sigtramp_r+0x36>
10003ca4:	00a2      	lsls	r2, r4, #2
10003ca6:	189b      	adds	r3, r3, r2
10003ca8:	681a      	ldr	r2, [r3, #0]
10003caa:	2a00      	cmp	r2, #0
10003cac:	d009      	beq.n	10003cc2 <__sigtramp_r+0x32>
10003cae:	1c51      	adds	r1, r2, #1
10003cb0:	d011      	beq.n	10003cd6 <__sigtramp_r+0x46>
10003cb2:	2a01      	cmp	r2, #1
10003cb4:	d00d      	beq.n	10003cd2 <__sigtramp_r+0x42>
10003cb6:	2100      	movs	r1, #0
10003cb8:	0020      	movs	r0, r4
10003cba:	6019      	str	r1, [r3, #0]
10003cbc:	4790      	blx	r2
10003cbe:	2000      	movs	r0, #0
10003cc0:	bd70      	pop	{r4, r5, r6, pc}
10003cc2:	2001      	movs	r0, #1
10003cc4:	e7fc      	b.n	10003cc0 <__sigtramp_r+0x30>
10003cc6:	f7ff ff73 	bl	10003bb0 <_init_signal_r.part.0>
10003cca:	2800      	cmp	r0, #0
10003ccc:	d105      	bne.n	10003cda <__sigtramp_r+0x4a>
10003cce:	59ab      	ldr	r3, [r5, r6]
10003cd0:	e7e8      	b.n	10003ca4 <__sigtramp_r+0x14>
10003cd2:	2003      	movs	r0, #3
10003cd4:	e7f4      	b.n	10003cc0 <__sigtramp_r+0x30>
10003cd6:	2002      	movs	r0, #2
10003cd8:	e7f2      	b.n	10003cc0 <__sigtramp_r+0x30>
10003cda:	2001      	movs	r0, #1
10003cdc:	4240      	negs	r0, r0
10003cde:	e7ef      	b.n	10003cc0 <__sigtramp_r+0x30>

10003ce0 <raise>:
10003ce0:	b510      	push	{r4, lr}
10003ce2:	4b03      	ldr	r3, [pc, #12]	; (10003cf0 <raise+0x10>)
10003ce4:	0001      	movs	r1, r0
10003ce6:	6818      	ldr	r0, [r3, #0]
10003ce8:	f7ff ffa4 	bl	10003c34 <_raise_r>
10003cec:	bd10      	pop	{r4, pc}
10003cee:	46c0      	nop			; (mov r8, r8)
10003cf0:	20001188 	.word	0x20001188

10003cf4 <signal>:
10003cf4:	b510      	push	{r4, lr}
10003cf6:	4b04      	ldr	r3, [pc, #16]	; (10003d08 <signal+0x14>)
10003cf8:	000a      	movs	r2, r1
10003cfa:	681b      	ldr	r3, [r3, #0]
10003cfc:	0001      	movs	r1, r0
10003cfe:	0018      	movs	r0, r3
10003d00:	f7ff ff7a 	bl	10003bf8 <_signal_r>
10003d04:	bd10      	pop	{r4, pc}
10003d06:	46c0      	nop			; (mov r8, r8)
10003d08:	20001188 	.word	0x20001188

10003d0c <_init_signal>:
10003d0c:	22b7      	movs	r2, #183	; 0xb7
10003d0e:	4b06      	ldr	r3, [pc, #24]	; (10003d28 <_init_signal+0x1c>)
10003d10:	0092      	lsls	r2, r2, #2
10003d12:	681b      	ldr	r3, [r3, #0]
10003d14:	b510      	push	{r4, lr}
10003d16:	589a      	ldr	r2, [r3, r2]
10003d18:	2000      	movs	r0, #0
10003d1a:	2a00      	cmp	r2, #0
10003d1c:	d000      	beq.n	10003d20 <_init_signal+0x14>
10003d1e:	bd10      	pop	{r4, pc}
10003d20:	0018      	movs	r0, r3
10003d22:	f7ff ff45 	bl	10003bb0 <_init_signal_r.part.0>
10003d26:	e7fa      	b.n	10003d1e <_init_signal+0x12>
10003d28:	20001188 	.word	0x20001188

10003d2c <__sigtramp>:
10003d2c:	b510      	push	{r4, lr}
10003d2e:	4b03      	ldr	r3, [pc, #12]	; (10003d3c <__sigtramp+0x10>)
10003d30:	0001      	movs	r1, r0
10003d32:	6818      	ldr	r0, [r3, #0]
10003d34:	f7ff ffac 	bl	10003c90 <__sigtramp_r>
10003d38:	bd10      	pop	{r4, pc}
10003d3a:	46c0      	nop			; (mov r8, r8)
10003d3c:	20001188 	.word	0x20001188

10003d40 <_kill_r>:
10003d40:	2300      	movs	r3, #0
10003d42:	b570      	push	{r4, r5, r6, lr}
10003d44:	4c07      	ldr	r4, [pc, #28]	; (10003d64 <_kill_r+0x24>)
10003d46:	0005      	movs	r5, r0
10003d48:	0008      	movs	r0, r1
10003d4a:	0011      	movs	r1, r2
10003d4c:	6023      	str	r3, [r4, #0]
10003d4e:	f000 f9cd 	bl	100040ec <_kill>
10003d52:	1c43      	adds	r3, r0, #1
10003d54:	d000      	beq.n	10003d58 <_kill_r+0x18>
10003d56:	bd70      	pop	{r4, r5, r6, pc}
10003d58:	6823      	ldr	r3, [r4, #0]
10003d5a:	2b00      	cmp	r3, #0
10003d5c:	d0fb      	beq.n	10003d56 <_kill_r+0x16>
10003d5e:	602b      	str	r3, [r5, #0]
10003d60:	e7f9      	b.n	10003d56 <_kill_r+0x16>
10003d62:	46c0      	nop			; (mov r8, r8)
10003d64:	20001e18 	.word	0x20001e18

10003d68 <_getpid_r>:
10003d68:	b510      	push	{r4, lr}
10003d6a:	f000 f9b7 	bl	100040dc <_getpid>
10003d6e:	bd10      	pop	{r4, pc}

10003d70 <strcmp>:
10003d70:	4602      	mov	r2, r0
10003d72:	b570      	push	{r4, r5, r6, lr}
10003d74:	430a      	orrs	r2, r1
10003d76:	0792      	lsls	r2, r2, #30
10003d78:	d12a      	bne.n	10003dd0 <strcmp+0x60>
10003d7a:	4d1e      	ldr	r5, [pc, #120]	; (10003df4 <strcmp+0x84>)
10003d7c:	01ee      	lsls	r6, r5, #7
10003d7e:	c804      	ldmia	r0!, {r2}
10003d80:	c908      	ldmia	r1!, {r3}
10003d82:	1b54      	subs	r4, r2, r5
10003d84:	4394      	bics	r4, r2
10003d86:	4034      	ands	r4, r6
10003d88:	d017      	beq.n	10003dba <strcmp+0x4a>
10003d8a:	b2d0      	uxtb	r0, r2
10003d8c:	b2d9      	uxtb	r1, r3
10003d8e:	1a40      	subs	r0, r0, r1
10003d90:	0621      	lsls	r1, r4, #24
10003d92:	4301      	orrs	r1, r0
10003d94:	d110      	bne.n	10003db8 <strcmp+0x48>
10003d96:	b290      	uxth	r0, r2
10003d98:	b299      	uxth	r1, r3
10003d9a:	1a40      	subs	r0, r0, r1
10003d9c:	0421      	lsls	r1, r4, #16
10003d9e:	4301      	orrs	r1, r0
10003da0:	d10a      	bne.n	10003db8 <strcmp+0x48>
10003da2:	0210      	lsls	r0, r2, #8
10003da4:	0219      	lsls	r1, r3, #8
10003da6:	0a00      	lsrs	r0, r0, #8
10003da8:	0a09      	lsrs	r1, r1, #8
10003daa:	1a40      	subs	r0, r0, r1
10003dac:	0221      	lsls	r1, r4, #8
10003dae:	4301      	orrs	r1, r0
10003db0:	d102      	bne.n	10003db8 <strcmp+0x48>
10003db2:	0e10      	lsrs	r0, r2, #24
10003db4:	0e19      	lsrs	r1, r3, #24
10003db6:	1a40      	subs	r0, r0, r1
10003db8:	bd70      	pop	{r4, r5, r6, pc}
10003dba:	429a      	cmp	r2, r3
10003dbc:	d0df      	beq.n	10003d7e <strcmp+0xe>
10003dbe:	ba10      	rev	r0, r2
10003dc0:	ba19      	rev	r1, r3
10003dc2:	4288      	cmp	r0, r1
10003dc4:	d901      	bls.n	10003dca <strcmp+0x5a>
10003dc6:	2001      	movs	r0, #1
10003dc8:	bd70      	pop	{r4, r5, r6, pc}
10003dca:	2000      	movs	r0, #0
10003dcc:	43c0      	mvns	r0, r0
10003dce:	bd70      	pop	{r4, r5, r6, pc}
10003dd0:	7802      	ldrb	r2, [r0, #0]
10003dd2:	780b      	ldrb	r3, [r1, #0]
10003dd4:	3001      	adds	r0, #1
10003dd6:	3101      	adds	r1, #1
10003dd8:	2a00      	cmp	r2, #0
10003dda:	d009      	beq.n	10003df0 <strcmp+0x80>
10003ddc:	429a      	cmp	r2, r3
10003dde:	d107      	bne.n	10003df0 <strcmp+0x80>
10003de0:	7802      	ldrb	r2, [r0, #0]
10003de2:	780b      	ldrb	r3, [r1, #0]
10003de4:	3001      	adds	r0, #1
10003de6:	3101      	adds	r1, #1
10003de8:	2a00      	cmp	r2, #0
10003dea:	d001      	beq.n	10003df0 <strcmp+0x80>
10003dec:	429a      	cmp	r2, r3
10003dee:	d0ef      	beq.n	10003dd0 <strcmp+0x60>
10003df0:	1ad0      	subs	r0, r2, r3
10003df2:	bd70      	pop	{r4, r5, r6, pc}
10003df4:	01010101 	.word	0x01010101

10003df8 <strlen>:
10003df8:	b510      	push	{r4, lr}
10003dfa:	0783      	lsls	r3, r0, #30
10003dfc:	d027      	beq.n	10003e4e <strlen+0x56>
10003dfe:	7803      	ldrb	r3, [r0, #0]
10003e00:	2b00      	cmp	r3, #0
10003e02:	d026      	beq.n	10003e52 <strlen+0x5a>
10003e04:	0003      	movs	r3, r0
10003e06:	2103      	movs	r1, #3
10003e08:	e002      	b.n	10003e10 <strlen+0x18>
10003e0a:	781a      	ldrb	r2, [r3, #0]
10003e0c:	2a00      	cmp	r2, #0
10003e0e:	d01c      	beq.n	10003e4a <strlen+0x52>
10003e10:	3301      	adds	r3, #1
10003e12:	420b      	tst	r3, r1
10003e14:	d1f9      	bne.n	10003e0a <strlen+0x12>
10003e16:	6819      	ldr	r1, [r3, #0]
10003e18:	4a0f      	ldr	r2, [pc, #60]	; (10003e58 <strlen+0x60>)
10003e1a:	4c10      	ldr	r4, [pc, #64]	; (10003e5c <strlen+0x64>)
10003e1c:	188a      	adds	r2, r1, r2
10003e1e:	438a      	bics	r2, r1
10003e20:	4222      	tst	r2, r4
10003e22:	d10f      	bne.n	10003e44 <strlen+0x4c>
10003e24:	3304      	adds	r3, #4
10003e26:	6819      	ldr	r1, [r3, #0]
10003e28:	4a0b      	ldr	r2, [pc, #44]	; (10003e58 <strlen+0x60>)
10003e2a:	188a      	adds	r2, r1, r2
10003e2c:	438a      	bics	r2, r1
10003e2e:	4222      	tst	r2, r4
10003e30:	d108      	bne.n	10003e44 <strlen+0x4c>
10003e32:	3304      	adds	r3, #4
10003e34:	6819      	ldr	r1, [r3, #0]
10003e36:	4a08      	ldr	r2, [pc, #32]	; (10003e58 <strlen+0x60>)
10003e38:	188a      	adds	r2, r1, r2
10003e3a:	438a      	bics	r2, r1
10003e3c:	4222      	tst	r2, r4
10003e3e:	d0f1      	beq.n	10003e24 <strlen+0x2c>
10003e40:	e000      	b.n	10003e44 <strlen+0x4c>
10003e42:	3301      	adds	r3, #1
10003e44:	781a      	ldrb	r2, [r3, #0]
10003e46:	2a00      	cmp	r2, #0
10003e48:	d1fb      	bne.n	10003e42 <strlen+0x4a>
10003e4a:	1a18      	subs	r0, r3, r0
10003e4c:	bd10      	pop	{r4, pc}
10003e4e:	0003      	movs	r3, r0
10003e50:	e7e1      	b.n	10003e16 <strlen+0x1e>
10003e52:	2000      	movs	r0, #0
10003e54:	e7fa      	b.n	10003e4c <strlen+0x54>
10003e56:	46c0      	nop			; (mov r8, r8)
10003e58:	fefefeff 	.word	0xfefefeff
10003e5c:	80808080 	.word	0x80808080

10003e60 <_malloc_trim_r>:
10003e60:	b5f8      	push	{r3, r4, r5, r6, r7, lr}
10003e62:	000c      	movs	r4, r1
10003e64:	0006      	movs	r6, r0
10003e66:	f7ff fe8d 	bl	10003b84 <__malloc_lock>
10003e6a:	4f20      	ldr	r7, [pc, #128]	; (10003eec <_malloc_trim_r+0x8c>)
10003e6c:	68bb      	ldr	r3, [r7, #8]
10003e6e:	685d      	ldr	r5, [r3, #4]
10003e70:	2303      	movs	r3, #3
10003e72:	439d      	bics	r5, r3
10003e74:	4b1e      	ldr	r3, [pc, #120]	; (10003ef0 <_malloc_trim_r+0x90>)
10003e76:	1b2c      	subs	r4, r5, r4
10003e78:	469c      	mov	ip, r3
10003e7a:	4464      	add	r4, ip
10003e7c:	0b24      	lsrs	r4, r4, #12
10003e7e:	4b1d      	ldr	r3, [pc, #116]	; (10003ef4 <_malloc_trim_r+0x94>)
10003e80:	3c01      	subs	r4, #1
10003e82:	0324      	lsls	r4, r4, #12
10003e84:	429c      	cmp	r4, r3
10003e86:	dd07      	ble.n	10003e98 <_malloc_trim_r+0x38>
10003e88:	2100      	movs	r1, #0
10003e8a:	0030      	movs	r0, r6
10003e8c:	f7ff fe7e 	bl	10003b8c <_sbrk_r>
10003e90:	68bb      	ldr	r3, [r7, #8]
10003e92:	195b      	adds	r3, r3, r5
10003e94:	4298      	cmp	r0, r3
10003e96:	d004      	beq.n	10003ea2 <_malloc_trim_r+0x42>
10003e98:	0030      	movs	r0, r6
10003e9a:	f7ff fe75 	bl	10003b88 <__malloc_unlock>
10003e9e:	2000      	movs	r0, #0
10003ea0:	bdf8      	pop	{r3, r4, r5, r6, r7, pc}
10003ea2:	4261      	negs	r1, r4
10003ea4:	0030      	movs	r0, r6
10003ea6:	f7ff fe71 	bl	10003b8c <_sbrk_r>
10003eaa:	1c43      	adds	r3, r0, #1
10003eac:	d00d      	beq.n	10003eca <_malloc_trim_r+0x6a>
10003eae:	2201      	movs	r2, #1
10003eb0:	68bb      	ldr	r3, [r7, #8]
10003eb2:	1b2d      	subs	r5, r5, r4
10003eb4:	4315      	orrs	r5, r2
10003eb6:	605d      	str	r5, [r3, #4]
10003eb8:	4b0f      	ldr	r3, [pc, #60]	; (10003ef8 <_malloc_trim_r+0x98>)
10003eba:	0030      	movs	r0, r6
10003ebc:	681a      	ldr	r2, [r3, #0]
10003ebe:	1b14      	subs	r4, r2, r4
10003ec0:	601c      	str	r4, [r3, #0]
10003ec2:	f7ff fe61 	bl	10003b88 <__malloc_unlock>
10003ec6:	2001      	movs	r0, #1
10003ec8:	e7ea      	b.n	10003ea0 <_malloc_trim_r+0x40>
10003eca:	2100      	movs	r1, #0
10003ecc:	0030      	movs	r0, r6
10003ece:	f7ff fe5d 	bl	10003b8c <_sbrk_r>
10003ed2:	68ba      	ldr	r2, [r7, #8]
10003ed4:	1a83      	subs	r3, r0, r2
10003ed6:	2b0f      	cmp	r3, #15
10003ed8:	ddde      	ble.n	10003e98 <_malloc_trim_r+0x38>
10003eda:	4908      	ldr	r1, [pc, #32]	; (10003efc <_malloc_trim_r+0x9c>)
10003edc:	6809      	ldr	r1, [r1, #0]
10003ede:	1a40      	subs	r0, r0, r1
10003ee0:	4905      	ldr	r1, [pc, #20]	; (10003ef8 <_malloc_trim_r+0x98>)
10003ee2:	6008      	str	r0, [r1, #0]
10003ee4:	2101      	movs	r1, #1
10003ee6:	430b      	orrs	r3, r1
10003ee8:	6053      	str	r3, [r2, #4]
10003eea:	e7d5      	b.n	10003e98 <_malloc_trim_r+0x38>
10003eec:	200015c0 	.word	0x200015c0
10003ef0:	00000fef 	.word	0x00000fef
10003ef4:	00000fff 	.word	0x00000fff
10003ef8:	20001b08 	.word	0x20001b08
10003efc:	200015b8 	.word	0x200015b8

10003f00 <_free_r>:
10003f00:	b5f0      	push	{r4, r5, r6, r7, lr}
10003f02:	46d6      	mov	lr, sl
10003f04:	464f      	mov	r7, r9
10003f06:	4646      	mov	r6, r8
10003f08:	0005      	movs	r5, r0
10003f0a:	b5c0      	push	{r6, r7, lr}
10003f0c:	1e0c      	subs	r4, r1, #0
10003f0e:	d05c      	beq.n	10003fca <_free_r+0xca>
10003f10:	f7ff fe38 	bl	10003b84 <__malloc_lock>
10003f14:	0021      	movs	r1, r4
10003f16:	3908      	subs	r1, #8
10003f18:	684f      	ldr	r7, [r1, #4]
10003f1a:	2401      	movs	r4, #1
10003f1c:	003b      	movs	r3, r7
10003f1e:	2203      	movs	r2, #3
10003f20:	43a3      	bics	r3, r4
10003f22:	18c8      	adds	r0, r1, r3
10003f24:	6846      	ldr	r6, [r0, #4]
10003f26:	4396      	bics	r6, r2
10003f28:	46b1      	mov	r9, r6
10003f2a:	4e66      	ldr	r6, [pc, #408]	; (100040c4 <_free_r+0x1c4>)
10003f2c:	68b2      	ldr	r2, [r6, #8]
10003f2e:	4282      	cmp	r2, r0
10003f30:	d100      	bne.n	10003f34 <_free_r+0x34>
10003f32:	e075      	b.n	10004020 <_free_r+0x120>
10003f34:	464a      	mov	r2, r9
10003f36:	6042      	str	r2, [r0, #4]
10003f38:	1882      	adds	r2, r0, r2
10003f3a:	4694      	mov	ip, r2
10003f3c:	423c      	tst	r4, r7
10003f3e:	d129      	bne.n	10003f94 <_free_r+0x94>
10003f40:	680f      	ldr	r7, [r1, #0]
10003f42:	1bc9      	subs	r1, r1, r7
10003f44:	688a      	ldr	r2, [r1, #8]
10003f46:	19db      	adds	r3, r3, r7
10003f48:	4690      	mov	r8, r2
10003f4a:	4662      	mov	r2, ip
10003f4c:	6857      	ldr	r7, [r2, #4]
10003f4e:	2208      	movs	r2, #8
10003f50:	4694      	mov	ip, r2
10003f52:	4027      	ands	r7, r4
10003f54:	44b4      	add	ip, r6
10003f56:	46ba      	mov	sl, r7
10003f58:	45e0      	cmp	r8, ip
10003f5a:	d056      	beq.n	1000400a <_free_r+0x10a>
10003f5c:	68ca      	ldr	r2, [r1, #12]
10003f5e:	4694      	mov	ip, r2
10003f60:	4642      	mov	r2, r8
10003f62:	4667      	mov	r7, ip
10003f64:	60d7      	str	r7, [r2, #12]
10003f66:	4662      	mov	r2, ip
10003f68:	4647      	mov	r7, r8
10003f6a:	6097      	str	r7, [r2, #8]
10003f6c:	4652      	mov	r2, sl
10003f6e:	2a00      	cmp	r2, #0
10003f70:	d113      	bne.n	10003f9a <_free_r+0x9a>
10003f72:	2201      	movs	r2, #1
10003f74:	444b      	add	r3, r9
10003f76:	18cf      	adds	r7, r1, r3
10003f78:	46bc      	mov	ip, r7
10003f7a:	6884      	ldr	r4, [r0, #8]
10003f7c:	4f52      	ldr	r7, [pc, #328]	; (100040c8 <_free_r+0x1c8>)
10003f7e:	431a      	orrs	r2, r3
10003f80:	42bc      	cmp	r4, r7
10003f82:	d100      	bne.n	10003f86 <_free_r+0x86>
10003f84:	e07a      	b.n	1000407c <_free_r+0x17c>
10003f86:	68c0      	ldr	r0, [r0, #12]
10003f88:	60e0      	str	r0, [r4, #12]
10003f8a:	6084      	str	r4, [r0, #8]
10003f8c:	604a      	str	r2, [r1, #4]
10003f8e:	4662      	mov	r2, ip
10003f90:	6013      	str	r3, [r2, #0]
10003f92:	e005      	b.n	10003fa0 <_free_r+0xa0>
10003f94:	6857      	ldr	r7, [r2, #4]
10003f96:	4227      	tst	r7, r4
10003f98:	d0eb      	beq.n	10003f72 <_free_r+0x72>
10003f9a:	431c      	orrs	r4, r3
10003f9c:	604c      	str	r4, [r1, #4]
10003f9e:	6003      	str	r3, [r0, #0]
10003fa0:	4a4a      	ldr	r2, [pc, #296]	; (100040cc <_free_r+0x1cc>)
10003fa2:	4293      	cmp	r3, r2
10003fa4:	d816      	bhi.n	10003fd4 <_free_r+0xd4>
10003fa6:	08db      	lsrs	r3, r3, #3
10003fa8:	3aff      	subs	r2, #255	; 0xff
10003faa:	1098      	asrs	r0, r3, #2
10003fac:	3aff      	subs	r2, #255	; 0xff
10003fae:	4082      	lsls	r2, r0
10003fb0:	6870      	ldr	r0, [r6, #4]
10003fb2:	00db      	lsls	r3, r3, #3
10003fb4:	4302      	orrs	r2, r0
10003fb6:	6072      	str	r2, [r6, #4]
10003fb8:	199e      	adds	r6, r3, r6
10003fba:	68b3      	ldr	r3, [r6, #8]
10003fbc:	60ce      	str	r6, [r1, #12]
10003fbe:	608b      	str	r3, [r1, #8]
10003fc0:	60b1      	str	r1, [r6, #8]
10003fc2:	60d9      	str	r1, [r3, #12]
10003fc4:	0028      	movs	r0, r5
10003fc6:	f7ff fddf 	bl	10003b88 <__malloc_unlock>
10003fca:	bc1c      	pop	{r2, r3, r4}
10003fcc:	4690      	mov	r8, r2
10003fce:	4699      	mov	r9, r3
10003fd0:	46a2      	mov	sl, r4
10003fd2:	bdf0      	pop	{r4, r5, r6, r7, pc}
10003fd4:	0a5c      	lsrs	r4, r3, #9
10003fd6:	2c04      	cmp	r4, #4
10003fd8:	d83a      	bhi.n	10004050 <_free_r+0x150>
10003fda:	099c      	lsrs	r4, r3, #6
10003fdc:	0020      	movs	r0, r4
10003fde:	3439      	adds	r4, #57	; 0x39
10003fe0:	3038      	adds	r0, #56	; 0x38
10003fe2:	00e4      	lsls	r4, r4, #3
10003fe4:	1934      	adds	r4, r6, r4
10003fe6:	3c08      	subs	r4, #8
10003fe8:	68a2      	ldr	r2, [r4, #8]
10003fea:	2703      	movs	r7, #3
10003fec:	4294      	cmp	r4, r2
10003fee:	d03e      	beq.n	1000406e <_free_r+0x16e>
10003ff0:	6850      	ldr	r0, [r2, #4]
10003ff2:	43b8      	bics	r0, r7
10003ff4:	4298      	cmp	r0, r3
10003ff6:	d902      	bls.n	10003ffe <_free_r+0xfe>
10003ff8:	6892      	ldr	r2, [r2, #8]
10003ffa:	4294      	cmp	r4, r2
10003ffc:	d1f8      	bne.n	10003ff0 <_free_r+0xf0>
10003ffe:	68d4      	ldr	r4, [r2, #12]
10004000:	60cc      	str	r4, [r1, #12]
10004002:	608a      	str	r2, [r1, #8]
10004004:	60a1      	str	r1, [r4, #8]
10004006:	60d1      	str	r1, [r2, #12]
10004008:	e7dc      	b.n	10003fc4 <_free_r+0xc4>
1000400a:	2f00      	cmp	r7, #0
1000400c:	d155      	bne.n	100040ba <_free_r+0x1ba>
1000400e:	68c2      	ldr	r2, [r0, #12]
10004010:	444b      	add	r3, r9
10004012:	6880      	ldr	r0, [r0, #8]
10004014:	431c      	orrs	r4, r3
10004016:	60c2      	str	r2, [r0, #12]
10004018:	6090      	str	r0, [r2, #8]
1000401a:	604c      	str	r4, [r1, #4]
1000401c:	50cb      	str	r3, [r1, r3]
1000401e:	e7d1      	b.n	10003fc4 <_free_r+0xc4>
10004020:	444b      	add	r3, r9
10004022:	423c      	tst	r4, r7
10004024:	d106      	bne.n	10004034 <_free_r+0x134>
10004026:	680a      	ldr	r2, [r1, #0]
10004028:	1a89      	subs	r1, r1, r2
1000402a:	6888      	ldr	r0, [r1, #8]
1000402c:	189b      	adds	r3, r3, r2
1000402e:	68ca      	ldr	r2, [r1, #12]
10004030:	60c2      	str	r2, [r0, #12]
10004032:	6090      	str	r0, [r2, #8]
10004034:	2201      	movs	r2, #1
10004036:	431a      	orrs	r2, r3
10004038:	604a      	str	r2, [r1, #4]
1000403a:	4a25      	ldr	r2, [pc, #148]	; (100040d0 <_free_r+0x1d0>)
1000403c:	60b1      	str	r1, [r6, #8]
1000403e:	6812      	ldr	r2, [r2, #0]
10004040:	429a      	cmp	r2, r3
10004042:	d8bf      	bhi.n	10003fc4 <_free_r+0xc4>
10004044:	4b23      	ldr	r3, [pc, #140]	; (100040d4 <_free_r+0x1d4>)
10004046:	0028      	movs	r0, r5
10004048:	6819      	ldr	r1, [r3, #0]
1000404a:	f7ff ff09 	bl	10003e60 <_malloc_trim_r>
1000404e:	e7b9      	b.n	10003fc4 <_free_r+0xc4>
10004050:	2c14      	cmp	r4, #20
10004052:	d907      	bls.n	10004064 <_free_r+0x164>
10004054:	2c54      	cmp	r4, #84	; 0x54
10004056:	d819      	bhi.n	1000408c <_free_r+0x18c>
10004058:	0b1c      	lsrs	r4, r3, #12
1000405a:	0020      	movs	r0, r4
1000405c:	346f      	adds	r4, #111	; 0x6f
1000405e:	306e      	adds	r0, #110	; 0x6e
10004060:	00e4      	lsls	r4, r4, #3
10004062:	e7bf      	b.n	10003fe4 <_free_r+0xe4>
10004064:	0020      	movs	r0, r4
10004066:	345c      	adds	r4, #92	; 0x5c
10004068:	305b      	adds	r0, #91	; 0x5b
1000406a:	00e4      	lsls	r4, r4, #3
1000406c:	e7ba      	b.n	10003fe4 <_free_r+0xe4>
1000406e:	2301      	movs	r3, #1
10004070:	1080      	asrs	r0, r0, #2
10004072:	4083      	lsls	r3, r0
10004074:	6870      	ldr	r0, [r6, #4]
10004076:	4303      	orrs	r3, r0
10004078:	6073      	str	r3, [r6, #4]
1000407a:	e7c1      	b.n	10004000 <_free_r+0x100>
1000407c:	60e1      	str	r1, [r4, #12]
1000407e:	60a1      	str	r1, [r4, #8]
10004080:	604a      	str	r2, [r1, #4]
10004082:	4662      	mov	r2, ip
10004084:	60cc      	str	r4, [r1, #12]
10004086:	608c      	str	r4, [r1, #8]
10004088:	6013      	str	r3, [r2, #0]
1000408a:	e79b      	b.n	10003fc4 <_free_r+0xc4>
1000408c:	20aa      	movs	r0, #170	; 0xaa
1000408e:	0040      	lsls	r0, r0, #1
10004090:	4284      	cmp	r4, r0
10004092:	d805      	bhi.n	100040a0 <_free_r+0x1a0>
10004094:	0bdc      	lsrs	r4, r3, #15
10004096:	0020      	movs	r0, r4
10004098:	3478      	adds	r4, #120	; 0x78
1000409a:	3077      	adds	r0, #119	; 0x77
1000409c:	00e4      	lsls	r4, r4, #3
1000409e:	e7a1      	b.n	10003fe4 <_free_r+0xe4>
100040a0:	480d      	ldr	r0, [pc, #52]	; (100040d8 <_free_r+0x1d8>)
100040a2:	4284      	cmp	r4, r0
100040a4:	d805      	bhi.n	100040b2 <_free_r+0x1b2>
100040a6:	0c9c      	lsrs	r4, r3, #18
100040a8:	0020      	movs	r0, r4
100040aa:	347d      	adds	r4, #125	; 0x7d
100040ac:	307c      	adds	r0, #124	; 0x7c
100040ae:	00e4      	lsls	r4, r4, #3
100040b0:	e798      	b.n	10003fe4 <_free_r+0xe4>
100040b2:	24fe      	movs	r4, #254	; 0xfe
100040b4:	207e      	movs	r0, #126	; 0x7e
100040b6:	00a4      	lsls	r4, r4, #2
100040b8:	e794      	b.n	10003fe4 <_free_r+0xe4>
100040ba:	431c      	orrs	r4, r3
100040bc:	604c      	str	r4, [r1, #4]
100040be:	6003      	str	r3, [r0, #0]
100040c0:	e780      	b.n	10003fc4 <_free_r+0xc4>
100040c2:	46c0      	nop			; (mov r8, r8)
100040c4:	200015c0 	.word	0x200015c0
100040c8:	200015c8 	.word	0x200015c8
100040cc:	000001ff 	.word	0x000001ff
100040d0:	200015bc 	.word	0x200015bc
100040d4:	20001b04 	.word	0x20001b04
100040d8:	00000554 	.word	0x00000554

100040dc <_getpid>:
100040dc:	2258      	movs	r2, #88	; 0x58
100040de:	2001      	movs	r0, #1
100040e0:	4b01      	ldr	r3, [pc, #4]	; (100040e8 <_getpid+0xc>)
100040e2:	4240      	negs	r0, r0
100040e4:	601a      	str	r2, [r3, #0]
100040e6:	4770      	bx	lr
100040e8:	20001e18 	.word	0x20001e18

100040ec <_kill>:
100040ec:	2258      	movs	r2, #88	; 0x58
100040ee:	2001      	movs	r0, #1
100040f0:	4b01      	ldr	r3, [pc, #4]	; (100040f8 <_kill+0xc>)
100040f2:	4240      	negs	r0, r0
100040f4:	601a      	str	r2, [r3, #0]
100040f6:	4770      	bx	lr
100040f8:	20001e18 	.word	0x20001e18

100040fc <_fini>:
100040fc:	b5f8      	push	{r3, r4, r5, r6, r7, lr}
100040fe:	46c0      	nop			; (mov r8, r8)

10004100 <___Unwind_GetTextRelBase_veneer>:
10004100:	b401      	push	{r0}
10004102:	4802      	ldr	r0, [pc, #8]	; (1000410c <___Unwind_GetTextRelBase_veneer+0xc>)
10004104:	4684      	mov	ip, r0
10004106:	bc01      	pop	{r0}
10004108:	4760      	bx	ip
1000410a:	bf00      	nop
1000410c:	2000109b 	.word	0x2000109b

10004110 <__mutex_exit_veneer>:
10004110:	b401      	push	{r0}
10004112:	4802      	ldr	r0, [pc, #8]	; (1000411c <__mutex_exit_veneer+0xc>)
10004114:	4684      	mov	ip, r0
10004116:	bc01      	pop	{r0}
10004118:	4760      	bx	ip
1000411a:	bf00      	nop
1000411c:	20000151 	.word	0x20000151

10004120 <___Unwind_VRS_Set_veneer>:
10004120:	b401      	push	{r0}
10004122:	4802      	ldr	r0, [pc, #8]	; (1000412c <___Unwind_VRS_Set_veneer+0xc>)
10004124:	4684      	mov	ip, r0
10004126:	bc01      	pop	{r0}
10004128:	4760      	bx	ip
1000412a:	bf00      	nop
1000412c:	20000579 	.word	0x20000579

10004130 <____gnu_unwind_frame_veneer>:
10004130:	b401      	push	{r0}
10004132:	4802      	ldr	r0, [pc, #8]	; (1000413c <____gnu_unwind_frame_veneer+0xc>)
10004134:	4684      	mov	ip, r0
10004136:	bc01      	pop	{r0}
10004138:	4760      	bx	ip
1000413a:	bf00      	nop
1000413c:	20001049 	.word	0x20001049

10004140 <___Unwind_DeleteException_veneer>:
10004140:	b401      	push	{r0}
10004142:	4802      	ldr	r0, [pc, #8]	; (1000414c <___Unwind_DeleteException_veneer+0xc>)
10004144:	4684      	mov	ip, r0
10004146:	bc01      	pop	{r0}
10004148:	4760      	bx	ip
1000414a:	bf00      	nop
1000414c:	2000051d 	.word	0x2000051d

10004150 <___Unwind_GetDataRelBase_veneer>:
10004150:	b401      	push	{r0}
10004152:	4802      	ldr	r0, [pc, #8]	; (1000415c <___Unwind_GetDataRelBase_veneer+0xc>)
10004154:	4684      	mov	ip, r0
10004156:	bc01      	pop	{r0}
10004158:	4760      	bx	ip
1000415a:	bf00      	nop
1000415c:	20001095 	.word	0x20001095

10004160 <____aeabi_idiv0_veneer>:
10004160:	b401      	push	{r0}
10004162:	4802      	ldr	r0, [pc, #8]	; (1000416c <____aeabi_idiv0_veneer+0xc>)
10004164:	4684      	mov	ip, r0
10004166:	bc01      	pop	{r0}
10004168:	4760      	bx	ip
1000416a:	bf00      	nop
1000416c:	20000179 	.word	0x20000179

10004170 <___Unwind_Resume_veneer>:
10004170:	b401      	push	{r0}
10004172:	4802      	ldr	r0, [pc, #8]	; (1000417c <___Unwind_Resume_veneer+0xc>)
10004174:	4684      	mov	ip, r0
10004176:	bc01      	pop	{r0}
10004178:	4760      	bx	ip
1000417a:	bf00      	nop
1000417c:	20000c45 	.word	0x20000c45

10004180 <__mutex_try_enter_veneer>:
10004180:	b401      	push	{r0}
10004182:	4802      	ldr	r0, [pc, #8]	; (1000418c <__mutex_try_enter_veneer+0xc>)
10004184:	4684      	mov	ip, r0
10004186:	bc01      	pop	{r0}
10004188:	4760      	bx	ip
1000418a:	bf00      	nop
1000418c:	20000109 	.word	0x20000109

10004190 <___Unwind_Complete_veneer>:
10004190:	b401      	push	{r0}
10004192:	4802      	ldr	r0, [pc, #8]	; (1000419c <___Unwind_Complete_veneer+0xc>)
10004194:	4684      	mov	ip, r0
10004196:	bc01      	pop	{r0}
10004198:	4760      	bx	ip
1000419a:	bf00      	nop
1000419c:	20000519 	.word	0x20000519

100041a0 <___Unwind_GetRegionStart_veneer>:
100041a0:	b401      	push	{r0}
100041a2:	4802      	ldr	r0, [pc, #8]	; (100041ac <___Unwind_GetRegionStart_veneer+0xc>)
100041a4:	4684      	mov	ip, r0
100041a6:	bc01      	pop	{r0}
100041a8:	4760      	bx	ip
100041aa:	bf00      	nop
100041ac:	20001075 	.word	0x20001075

100041b0 <___Unwind_VRS_Get_veneer>:
100041b0:	b401      	push	{r0}
100041b2:	4802      	ldr	r0, [pc, #8]	; (100041bc <___Unwind_VRS_Get_veneer+0xc>)
100041b4:	4684      	mov	ip, r0
100041b6:	bc01      	pop	{r0}
100041b8:	4760      	bx	ip
100041ba:	bf00      	nop
100041bc:	2000052d 	.word	0x2000052d

100041c0 <___Unwind_Resume_or_Rethrow_veneer>:
100041c0:	b401      	push	{r0}
100041c2:	4802      	ldr	r0, [pc, #8]	; (100041cc <___Unwind_Resume_or_Rethrow_veneer+0xc>)
100041c4:	4684      	mov	ip, r0
100041c6:	bc01      	pop	{r0}
100041c8:	4760      	bx	ip
100041ca:	bf00      	nop
100041cc:	20000c75 	.word	0x20000c75

100041d0 <___Unwind_RaiseException_veneer>:
100041d0:	b401      	push	{r0}
100041d2:	4802      	ldr	r0, [pc, #8]	; (100041dc <___Unwind_RaiseException_veneer+0xc>)
100041d4:	4684      	mov	ip, r0
100041d6:	bc01      	pop	{r0}
100041d8:	4760      	bx	ip
100041da:	bf00      	nop
100041dc:	20000c15 	.word	0x20000c15

100041e0 <__mutex_enter_blocking_veneer>:
100041e0:	b401      	push	{r0}
100041e2:	4802      	ldr	r0, [pc, #8]	; (100041ec <__mutex_enter_blocking_veneer+0xc>)
100041e4:	4684      	mov	ip, r0
100041e6:	bc01      	pop	{r0}
100041e8:	4760      	bx	ip
100041ea:	bf00      	nop
100041ec:	200000c1 	.word	0x200000c1

100041f0 <___Unwind_GetLanguageSpecificData_veneer>:
100041f0:	b401      	push	{r0}
100041f2:	4802      	ldr	r0, [pc, #8]	; (100041fc <___Unwind_GetLanguageSpecificData_veneer+0xc>)
100041f4:	4684      	mov	ip, r0
100041f6:	bc01      	pop	{r0}
100041f8:	4760      	bx	ip
100041fa:	bf00      	nop
100041fc:	20001081 	.word	0x20001081

Disassembly of section .data:

200000c0 <mutex_enter_blocking>:
200000c0:	23d0      	movs	r3, #208	; 0xd0
200000c2:	b530      	push	{r4, r5, lr}
200000c4:	2500      	movs	r5, #0
200000c6:	061b      	lsls	r3, r3, #24
200000c8:	2400      	movs	r4, #0
200000ca:	575d      	ldrsb	r5, [r3, r5]
200000cc:	e006      	b.n	200000dc <mutex_enter_blocking+0x1c>
200000ce:	6803      	ldr	r3, [r0, #0]
200000d0:	f3bf 8f5f 	dmb	sy
200000d4:	601c      	str	r4, [r3, #0]
200000d6:	f381 8810 	msr	PRIMASK, r1
200000da:	bf20      	wfe
200000dc:	6802      	ldr	r2, [r0, #0]
200000de:	f3ef 8110 	mrs	r1, PRIMASK
200000e2:	b672      	cpsid	i
200000e4:	6813      	ldr	r3, [r2, #0]
200000e6:	2b00      	cmp	r3, #0
200000e8:	d0fc      	beq.n	200000e4 <mutex_enter_blocking+0x24>
200000ea:	f3bf 8f5f 	dmb	sy
200000ee:	7903      	ldrb	r3, [r0, #4]
200000f0:	2b7f      	cmp	r3, #127	; 0x7f
200000f2:	d9ec      	bls.n	200000ce <mutex_enter_blocking+0xe>
200000f4:	7105      	strb	r5, [r0, #4]
200000f6:	6803      	ldr	r3, [r0, #0]
200000f8:	f3bf 8f5f 	dmb	sy
200000fc:	2200      	movs	r2, #0
200000fe:	601a      	str	r2, [r3, #0]
20000100:	f381 8810 	msr	PRIMASK, r1
20000104:	bd30      	pop	{r4, r5, pc}
20000106:	46c0      	nop			; (mov r8, r8)

20000108 <mutex_try_enter>:
20000108:	0003      	movs	r3, r0
2000010a:	b510      	push	{r4, lr}
2000010c:	6800      	ldr	r0, [r0, #0]
2000010e:	f3ef 8410 	mrs	r4, PRIMASK
20000112:	b672      	cpsid	i
20000114:	6802      	ldr	r2, [r0, #0]
20000116:	2a00      	cmp	r2, #0
20000118:	d0fc      	beq.n	20000114 <mutex_try_enter+0xc>
2000011a:	f3bf 8f5f 	dmb	sy
2000011e:	2204      	movs	r2, #4
20000120:	569a      	ldrsb	r2, [r3, r2]
20000122:	2a00      	cmp	r2, #0
20000124:	db0b      	blt.n	2000013e <mutex_try_enter+0x36>
20000126:	2900      	cmp	r1, #0
20000128:	d00f      	beq.n	2000014a <mutex_try_enter+0x42>
2000012a:	2000      	movs	r0, #0
2000012c:	600a      	str	r2, [r1, #0]
2000012e:	681b      	ldr	r3, [r3, #0]
20000130:	f3bf 8f5f 	dmb	sy
20000134:	2200      	movs	r2, #0
20000136:	601a      	str	r2, [r3, #0]
20000138:	f384 8810 	msr	PRIMASK, r4
2000013c:	bd10      	pop	{r4, pc}
2000013e:	22d0      	movs	r2, #208	; 0xd0
20000140:	0612      	lsls	r2, r2, #24
20000142:	6812      	ldr	r2, [r2, #0]
20000144:	2001      	movs	r0, #1
20000146:	711a      	strb	r2, [r3, #4]
20000148:	e7f1      	b.n	2000012e <mutex_try_enter+0x26>
2000014a:	2000      	movs	r0, #0
2000014c:	e7ef      	b.n	2000012e <mutex_try_enter+0x26>
2000014e:	46c0      	nop			; (mov r8, r8)

20000150 <mutex_exit>:
20000150:	6802      	ldr	r2, [r0, #0]
20000152:	f3ef 8110 	mrs	r1, PRIMASK
20000156:	b672      	cpsid	i
20000158:	6813      	ldr	r3, [r2, #0]
2000015a:	2b00      	cmp	r3, #0
2000015c:	d0fc      	beq.n	20000158 <mutex_exit+0x8>
2000015e:	f3bf 8f5f 	dmb	sy
20000162:	23ff      	movs	r3, #255	; 0xff
20000164:	7103      	strb	r3, [r0, #4]
20000166:	6803      	ldr	r3, [r0, #0]
20000168:	f3bf 8f5f 	dmb	sy
2000016c:	2200      	movs	r2, #0
2000016e:	601a      	str	r2, [r3, #0]
20000170:	f381 8810 	msr	PRIMASK, r1
20000174:	bf40      	sev
20000176:	4770      	bx	lr

20000178 <__aeabi_idiv0>:
20000178:	4770      	bx	lr
2000017a:	46c0      	nop			; (mov r8, r8)

2000017c <selfrel_offset31>:
2000017c:	6803      	ldr	r3, [r0, #0]
2000017e:	005a      	lsls	r2, r3, #1
20000180:	d504      	bpl.n	2000018c <selfrel_offset31+0x10>
20000182:	2280      	movs	r2, #128	; 0x80
20000184:	0612      	lsls	r2, r2, #24
20000186:	4313      	orrs	r3, r2
20000188:	18c0      	adds	r0, r0, r3
2000018a:	4770      	bx	lr
2000018c:	005b      	lsls	r3, r3, #1
2000018e:	085b      	lsrs	r3, r3, #1
20000190:	e7fa      	b.n	20000188 <selfrel_offset31+0xc>
20000192:	46c0      	nop			; (mov r8, r8)

20000194 <search_EIT_table>:
20000194:	b5f8      	push	{r3, r4, r5, r6, r7, lr}
20000196:	4657      	mov	r7, sl
20000198:	4645      	mov	r5, r8
2000019a:	46de      	mov	lr, fp
2000019c:	464e      	mov	r6, r9
2000019e:	4690      	mov	r8, r2
200001a0:	b5e0      	push	{r5, r6, r7, lr}
200001a2:	0007      	movs	r7, r0
200001a4:	2900      	cmp	r1, #0
200001a6:	d024      	beq.n	200001f2 <search_EIT_table+0x5e>
200001a8:	1e4b      	subs	r3, r1, #1
200001aa:	469a      	mov	sl, r3
200001ac:	4699      	mov	r9, r3
200001ae:	2300      	movs	r3, #0
200001b0:	469b      	mov	fp, r3
200001b2:	465b      	mov	r3, fp
200001b4:	444b      	add	r3, r9
200001b6:	0fdc      	lsrs	r4, r3, #31
200001b8:	18e4      	adds	r4, r4, r3
200001ba:	1064      	asrs	r4, r4, #1
200001bc:	00e5      	lsls	r5, r4, #3
200001be:	197e      	adds	r6, r7, r5
200001c0:	0030      	movs	r0, r6
200001c2:	f7ff ffdb 	bl	2000017c <selfrel_offset31>
200001c6:	45a2      	cmp	sl, r4
200001c8:	d00c      	beq.n	200001e4 <search_EIT_table+0x50>
200001ca:	4540      	cmp	r0, r8
200001cc:	d80c      	bhi.n	200001e8 <search_EIT_table+0x54>
200001ce:	0028      	movs	r0, r5
200001d0:	3008      	adds	r0, #8
200001d2:	1838      	adds	r0, r7, r0
200001d4:	f7ff ffd2 	bl	2000017c <selfrel_offset31>
200001d8:	3801      	subs	r0, #1
200001da:	4540      	cmp	r0, r8
200001dc:	d20a      	bcs.n	200001f4 <search_EIT_table+0x60>
200001de:	1c63      	adds	r3, r4, #1
200001e0:	469b      	mov	fp, r3
200001e2:	e7e6      	b.n	200001b2 <search_EIT_table+0x1e>
200001e4:	4540      	cmp	r0, r8
200001e6:	d905      	bls.n	200001f4 <search_EIT_table+0x60>
200001e8:	45a3      	cmp	fp, r4
200001ea:	d002      	beq.n	200001f2 <search_EIT_table+0x5e>
200001ec:	1e63      	subs	r3, r4, #1
200001ee:	4699      	mov	r9, r3
200001f0:	e7df      	b.n	200001b2 <search_EIT_table+0x1e>
200001f2:	2600      	movs	r6, #0
200001f4:	0030      	movs	r0, r6
200001f6:	bc3c      	pop	{r2, r3, r4, r5}
200001f8:	4690      	mov	r8, r2
200001fa:	4699      	mov	r9, r3
200001fc:	46a2      	mov	sl, r4
200001fe:	46ab      	mov	fp, r5
20000200:	bdf8      	pop	{r3, r4, r5, r6, r7, pc}
20000202:	46c0      	nop			; (mov r8, r8)

20000204 <__gnu_unwind_get_pr_addr>:
20000204:	0003      	movs	r3, r0
20000206:	2801      	cmp	r0, #1
20000208:	d005      	beq.n	20000216 <__gnu_unwind_get_pr_addr+0x12>
2000020a:	2802      	cmp	r0, #2
2000020c:	d007      	beq.n	2000021e <__gnu_unwind_get_pr_addr+0x1a>
2000020e:	2000      	movs	r0, #0
20000210:	2b00      	cmp	r3, #0
20000212:	d002      	beq.n	2000021a <__gnu_unwind_get_pr_addr+0x16>
20000214:	4770      	bx	lr
20000216:	4803      	ldr	r0, [pc, #12]	; (20000224 <__gnu_unwind_get_pr_addr+0x20>)
20000218:	e7fc      	b.n	20000214 <__gnu_unwind_get_pr_addr+0x10>
2000021a:	4803      	ldr	r0, [pc, #12]	; (20000228 <__gnu_unwind_get_pr_addr+0x24>)
2000021c:	e7fa      	b.n	20000214 <__gnu_unwind_get_pr_addr+0x10>
2000021e:	4803      	ldr	r0, [pc, #12]	; (2000022c <__gnu_unwind_get_pr_addr+0x28>)
20000220:	e7f8      	b.n	20000214 <__gnu_unwind_get_pr_addr+0x10>
20000222:	46c0      	nop			; (mov r8, r8)
20000224:	2000092d 	.word	0x2000092d
20000228:	20000921 	.word	0x20000921
2000022c:	20000939 	.word	0x20000939

20000230 <get_eit_entry>:
20000230:	b530      	push	{r4, r5, lr}
20000232:	4b23      	ldr	r3, [pc, #140]	; (200002c0 <get_eit_entry+0x90>)
20000234:	0005      	movs	r5, r0
20000236:	b083      	sub	sp, #12
20000238:	1e8c      	subs	r4, r1, #2
2000023a:	2b00      	cmp	r3, #0
2000023c:	d026      	beq.n	2000028c <get_eit_entry+0x5c>
2000023e:	0020      	movs	r0, r4
20000240:	a901      	add	r1, sp, #4
20000242:	e000      	b.n	20000246 <get_eit_entry+0x16>
20000244:	bf00      	nop
20000246:	2800      	cmp	r0, #0
20000248:	d01c      	beq.n	20000284 <get_eit_entry+0x54>
2000024a:	9901      	ldr	r1, [sp, #4]
2000024c:	0022      	movs	r2, r4
2000024e:	f7ff ffa1 	bl	20000194 <search_EIT_table>
20000252:	1e04      	subs	r4, r0, #0
20000254:	d016      	beq.n	20000284 <get_eit_entry+0x54>
20000256:	f7ff ff91 	bl	2000017c <selfrel_offset31>
2000025a:	6863      	ldr	r3, [r4, #4]
2000025c:	64a8      	str	r0, [r5, #72]	; 0x48
2000025e:	2b01      	cmp	r3, #1
20000260:	d02a      	beq.n	200002b8 <get_eit_entry+0x88>
20000262:	1d20      	adds	r0, r4, #4
20000264:	2b00      	cmp	r3, #0
20000266:	db23      	blt.n	200002b0 <get_eit_entry+0x80>
20000268:	f7ff ff88 	bl	2000017c <selfrel_offset31>
2000026c:	2300      	movs	r3, #0
2000026e:	64e8      	str	r0, [r5, #76]	; 0x4c
20000270:	652b      	str	r3, [r5, #80]	; 0x50
20000272:	6803      	ldr	r3, [r0, #0]
20000274:	2b00      	cmp	r3, #0
20000276:	db0f      	blt.n	20000298 <get_eit_entry+0x68>
20000278:	f7ff ff80 	bl	2000017c <selfrel_offset31>
2000027c:	6128      	str	r0, [r5, #16]
2000027e:	2000      	movs	r0, #0
20000280:	b003      	add	sp, #12
20000282:	bd30      	pop	{r4, r5, pc}
20000284:	2300      	movs	r3, #0
20000286:	2009      	movs	r0, #9
20000288:	612b      	str	r3, [r5, #16]
2000028a:	e7f9      	b.n	20000280 <get_eit_entry+0x50>
2000028c:	480d      	ldr	r0, [pc, #52]	; (200002c4 <get_eit_entry+0x94>)
2000028e:	490e      	ldr	r1, [pc, #56]	; (200002c8 <get_eit_entry+0x98>)
20000290:	1a09      	subs	r1, r1, r0
20000292:	10c9      	asrs	r1, r1, #3
20000294:	9101      	str	r1, [sp, #4]
20000296:	e7d9      	b.n	2000024c <get_eit_entry+0x1c>
20000298:	0118      	lsls	r0, r3, #4
2000029a:	0f00      	lsrs	r0, r0, #28
2000029c:	f7ff ffb2 	bl	20000204 <__gnu_unwind_get_pr_addr>
200002a0:	6128      	str	r0, [r5, #16]
200002a2:	1e43      	subs	r3, r0, #1
200002a4:	4198      	sbcs	r0, r3
200002a6:	2308      	movs	r3, #8
200002a8:	4240      	negs	r0, r0
200002aa:	4398      	bics	r0, r3
200002ac:	3009      	adds	r0, #9
200002ae:	e7e7      	b.n	20000280 <get_eit_entry+0x50>
200002b0:	2301      	movs	r3, #1
200002b2:	64e8      	str	r0, [r5, #76]	; 0x4c
200002b4:	652b      	str	r3, [r5, #80]	; 0x50
200002b6:	e7dc      	b.n	20000272 <get_eit_entry+0x42>
200002b8:	2300      	movs	r3, #0
200002ba:	2005      	movs	r0, #5
200002bc:	612b      	str	r3, [r5, #16]
200002be:	e7df      	b.n	20000280 <get_eit_entry+0x50>
200002c0:	00000000 	.word	0x00000000
200002c4:	10004794 	.word	0x10004794
200002c8:	1000499c 	.word	0x1000499c

200002cc <restore_non_core_regs>:
200002cc:	6803      	ldr	r3, [r0, #0]
200002ce:	b510      	push	{r4, lr}
200002d0:	0004      	movs	r4, r0
200002d2:	07da      	lsls	r2, r3, #31
200002d4:	d405      	bmi.n	200002e2 <restore_non_core_regs+0x16>
200002d6:	079b      	lsls	r3, r3, #30
200002d8:	d50a      	bpl.n	200002f0 <restore_non_core_regs+0x24>
200002da:	3048      	adds	r0, #72	; 0x48
200002dc:	f000 fc8a 	bl	20000bf4 <__gnu_Unwind_Restore_VFP_D>
200002e0:	6823      	ldr	r3, [r4, #0]
200002e2:	075a      	lsls	r2, r3, #29
200002e4:	d50a      	bpl.n	200002fc <restore_non_core_regs+0x30>
200002e6:	071a      	lsls	r2, r3, #28
200002e8:	d50f      	bpl.n	2000030a <restore_non_core_regs+0x3e>
200002ea:	06db      	lsls	r3, r3, #27
200002ec:	d515      	bpl.n	2000031a <restore_non_core_regs+0x4e>
200002ee:	bd10      	pop	{r4, pc}
200002f0:	3048      	adds	r0, #72	; 0x48
200002f2:	f000 fc7b 	bl	20000bec <__gnu_Unwind_Restore_VFP>
200002f6:	6823      	ldr	r3, [r4, #0]
200002f8:	075a      	lsls	r2, r3, #29
200002fa:	d4f4      	bmi.n	200002e6 <restore_non_core_regs+0x1a>
200002fc:	0020      	movs	r0, r4
200002fe:	30d0      	adds	r0, #208	; 0xd0
20000300:	f000 fc7c 	bl	20000bfc <__gnu_Unwind_Restore_VFP_D_16_to_31>
20000304:	6823      	ldr	r3, [r4, #0]
20000306:	071a      	lsls	r2, r3, #28
20000308:	d4ef      	bmi.n	200002ea <restore_non_core_regs+0x1e>
2000030a:	0020      	movs	r0, r4
2000030c:	3051      	adds	r0, #81	; 0x51
2000030e:	30ff      	adds	r0, #255	; 0xff
20000310:	f000 fc78 	bl	20000c04 <__gnu_Unwind_Restore_WMMXD>
20000314:	6823      	ldr	r3, [r4, #0]
20000316:	06db      	lsls	r3, r3, #27
20000318:	d4e9      	bmi.n	200002ee <restore_non_core_regs+0x22>
2000031a:	0020      	movs	r0, r4
2000031c:	30d1      	adds	r0, #209	; 0xd1
2000031e:	30ff      	adds	r0, #255	; 0xff
20000320:	f000 fc74 	bl	20000c0c <__gnu_Unwind_Restore_WMMXC>
20000324:	e7e3      	b.n	200002ee <restore_non_core_regs+0x22>
20000326:	46c0      	nop			; (mov r8, r8)

20000328 <_Unwind_decode_typeinfo_ptr.isra.0>:
20000328:	0003      	movs	r3, r0
2000032a:	6800      	ldr	r0, [r0, #0]
2000032c:	2800      	cmp	r0, #0
2000032e:	d000      	beq.n	20000332 <_Unwind_decode_typeinfo_ptr.isra.0+0xa>
20000330:	18c0      	adds	r0, r0, r3
20000332:	4770      	bx	lr

20000334 <__gnu_unwind_24bit.isra.0>:
20000334:	2009      	movs	r0, #9
20000336:	4770      	bx	lr

20000338 <_Unwind_DebugHook>:
20000338:	4770      	bx	lr
2000033a:	46c0      	nop			; (mov r8, r8)

2000033c <unwind_phase2>:
2000033c:	b570      	push	{r4, r5, r6, lr}
2000033e:	0004      	movs	r4, r0
20000340:	000d      	movs	r5, r1
20000342:	0020      	movs	r0, r4
20000344:	6c29      	ldr	r1, [r5, #64]	; 0x40
20000346:	f7ff ff73 	bl	20000230 <get_eit_entry>
2000034a:	2800      	cmp	r0, #0
2000034c:	d111      	bne.n	20000372 <unwind_phase2+0x36>
2000034e:	6c2b      	ldr	r3, [r5, #64]	; 0x40
20000350:	002a      	movs	r2, r5
20000352:	6163      	str	r3, [r4, #20]
20000354:	0021      	movs	r1, r4
20000356:	2001      	movs	r0, #1
20000358:	6923      	ldr	r3, [r4, #16]
2000035a:	4798      	blx	r3
2000035c:	2808      	cmp	r0, #8
2000035e:	d0f0      	beq.n	20000342 <unwind_phase2+0x6>
20000360:	2807      	cmp	r0, #7
20000362:	d106      	bne.n	20000372 <unwind_phase2+0x36>
20000364:	2000      	movs	r0, #0
20000366:	6c29      	ldr	r1, [r5, #64]	; 0x40
20000368:	f7ff ffe6 	bl	20000338 <_Unwind_DebugHook>
2000036c:	1d28      	adds	r0, r5, #4
2000036e:	f000 fc27 	bl	20000bc0 <__restore_core_regs>
20000372:	f000 fe95 	bl	200010a0 <__abort_veneer>
20000376:	46c0      	nop			; (mov r8, r8)

20000378 <unwind_phase2_forced>:
20000378:	b5f0      	push	{r4, r5, r6, r7, lr}
2000037a:	46ce      	mov	lr, r9
2000037c:	4647      	mov	r7, r8
2000037e:	b580      	push	{r7, lr}
20000380:	68c3      	ldr	r3, [r0, #12]
20000382:	4c30      	ldr	r4, [pc, #192]	; (20000444 <unwind_phase2_forced+0xcc>)
20000384:	4698      	mov	r8, r3
20000386:	44a5      	add	sp, r4
20000388:	6983      	ldr	r3, [r0, #24]
2000038a:	0004      	movs	r4, r0
2000038c:	0016      	movs	r6, r2
2000038e:	3104      	adds	r1, #4
20000390:	2240      	movs	r2, #64	; 0x40
20000392:	a805      	add	r0, sp, #20
20000394:	4699      	mov	r9, r3
20000396:	f000 fe8b 	bl	200010b0 <____wrap_memcpy_veneer>
2000039a:	2300      	movs	r3, #0
2000039c:	9304      	str	r3, [sp, #16]
2000039e:	e025      	b.n	200003ec <unwind_phase2_forced+0x74>
200003a0:	22f0      	movs	r2, #240	; 0xf0
200003a2:	9b14      	ldr	r3, [sp, #80]	; 0x50
200003a4:	0052      	lsls	r2, r2, #1
200003a6:	6163      	str	r3, [r4, #20]
200003a8:	a904      	add	r1, sp, #16
200003aa:	a87c      	add	r0, sp, #496	; 0x1f0
200003ac:	9303      	str	r3, [sp, #12]
200003ae:	f000 fe7f 	bl	200010b0 <____wrap_memcpy_veneer>
200003b2:	0021      	movs	r1, r4
200003b4:	0028      	movs	r0, r5
200003b6:	6923      	ldr	r3, [r4, #16]
200003b8:	aa7c      	add	r2, sp, #496	; 0x1f0
200003ba:	4798      	blx	r3
200003bc:	9b8a      	ldr	r3, [sp, #552]	; 0x228
200003be:	0005      	movs	r5, r0
200003c0:	9303      	str	r3, [sp, #12]
200003c2:	9315      	str	r3, [sp, #84]	; 0x54
200003c4:	464b      	mov	r3, r9
200003c6:	9301      	str	r3, [sp, #4]
200003c8:	ab04      	add	r3, sp, #16
200003ca:	9300      	str	r3, [sp, #0]
200003cc:	0022      	movs	r2, r4
200003ce:	0023      	movs	r3, r4
200003d0:	0031      	movs	r1, r6
200003d2:	2001      	movs	r0, #1
200003d4:	47c0      	blx	r8
200003d6:	2800      	cmp	r0, #0
200003d8:	d122      	bne.n	20000420 <unwind_phase2_forced+0xa8>
200003da:	22f0      	movs	r2, #240	; 0xf0
200003dc:	a97c      	add	r1, sp, #496	; 0x1f0
200003de:	0052      	lsls	r2, r2, #1
200003e0:	a804      	add	r0, sp, #16
200003e2:	f000 fe65 	bl	200010b0 <____wrap_memcpy_veneer>
200003e6:	2600      	movs	r6, #0
200003e8:	2d08      	cmp	r5, #8
200003ea:	d122      	bne.n	20000432 <unwind_phase2_forced+0xba>
200003ec:	9b14      	ldr	r3, [sp, #80]	; 0x50
200003ee:	0020      	movs	r0, r4
200003f0:	0019      	movs	r1, r3
200003f2:	9303      	str	r3, [sp, #12]
200003f4:	f7ff ff1c 	bl	20000230 <get_eit_entry>
200003f8:	3609      	adds	r6, #9
200003fa:	0007      	movs	r7, r0
200003fc:	b2f5      	uxtb	r5, r6
200003fe:	2800      	cmp	r0, #0
20000400:	d0ce      	beq.n	200003a0 <unwind_phase2_forced+0x28>
20000402:	9b12      	ldr	r3, [sp, #72]	; 0x48
20000404:	2110      	movs	r1, #16
20000406:	9303      	str	r3, [sp, #12]
20000408:	9315      	str	r3, [sp, #84]	; 0x54
2000040a:	464b      	mov	r3, r9
2000040c:	9301      	str	r3, [sp, #4]
2000040e:	ab04      	add	r3, sp, #16
20000410:	9300      	str	r3, [sp, #0]
20000412:	0022      	movs	r2, r4
20000414:	0023      	movs	r3, r4
20000416:	2001      	movs	r0, #1
20000418:	4329      	orrs	r1, r5
2000041a:	47c0      	blx	r8
2000041c:	2800      	cmp	r0, #0
2000041e:	d000      	beq.n	20000422 <unwind_phase2_forced+0xaa>
20000420:	2709      	movs	r7, #9
20000422:	0038      	movs	r0, r7
20000424:	23f5      	movs	r3, #245	; 0xf5
20000426:	009b      	lsls	r3, r3, #2
20000428:	449d      	add	sp, r3
2000042a:	bc0c      	pop	{r2, r3}
2000042c:	4690      	mov	r8, r2
2000042e:	4699      	mov	r9, r3
20000430:	bdf0      	pop	{r4, r5, r6, r7, pc}
20000432:	2d07      	cmp	r5, #7
20000434:	d1f4      	bne.n	20000420 <unwind_phase2_forced+0xa8>
20000436:	0030      	movs	r0, r6
20000438:	9914      	ldr	r1, [sp, #80]	; 0x50
2000043a:	f7ff ff7d 	bl	20000338 <_Unwind_DebugHook>
2000043e:	a805      	add	r0, sp, #20
20000440:	f000 fbbe 	bl	20000bc0 <__restore_core_regs>
20000444:	fffffc2c 	.word	0xfffffc2c

20000448 <_Unwind_GetCFA>:
20000448:	6c40      	ldr	r0, [r0, #68]	; 0x44
2000044a:	4770      	bx	lr

2000044c <__gnu_Unwind_RaiseException>:
2000044c:	b570      	push	{r4, r5, r6, lr}
2000044e:	6bcb      	ldr	r3, [r1, #60]	; 0x3c
20000450:	b0fa      	sub	sp, #488	; 0x1e8
20000452:	640b      	str	r3, [r1, #64]	; 0x40
20000454:	0005      	movs	r5, r0
20000456:	000e      	movs	r6, r1
20000458:	2240      	movs	r2, #64	; 0x40
2000045a:	3104      	adds	r1, #4
2000045c:	a803      	add	r0, sp, #12
2000045e:	f000 fe27 	bl	200010b0 <____wrap_memcpy_veneer>
20000462:	2301      	movs	r3, #1
20000464:	425b      	negs	r3, r3
20000466:	9302      	str	r3, [sp, #8]
20000468:	e006      	b.n	20000478 <__gnu_Unwind_RaiseException+0x2c>
2000046a:	0029      	movs	r1, r5
2000046c:	692b      	ldr	r3, [r5, #16]
2000046e:	aa02      	add	r2, sp, #8
20000470:	4798      	blx	r3
20000472:	0004      	movs	r4, r0
20000474:	2808      	cmp	r0, #8
20000476:	d10a      	bne.n	2000048e <__gnu_Unwind_RaiseException+0x42>
20000478:	9b12      	ldr	r3, [sp, #72]	; 0x48
2000047a:	0028      	movs	r0, r5
2000047c:	0019      	movs	r1, r3
2000047e:	9301      	str	r3, [sp, #4]
20000480:	f7ff fed6 	bl	20000230 <get_eit_entry>
20000484:	2800      	cmp	r0, #0
20000486:	d0f0      	beq.n	2000046a <__gnu_Unwind_RaiseException+0x1e>
20000488:	2009      	movs	r0, #9
2000048a:	b07a      	add	sp, #488	; 0x1e8
2000048c:	bd70      	pop	{r4, r5, r6, pc}
2000048e:	a802      	add	r0, sp, #8
20000490:	f7ff ff1c 	bl	200002cc <restore_non_core_regs>
20000494:	2c06      	cmp	r4, #6
20000496:	d1f7      	bne.n	20000488 <__gnu_Unwind_RaiseException+0x3c>
20000498:	0031      	movs	r1, r6
2000049a:	0028      	movs	r0, r5
2000049c:	f7ff ff4e 	bl	2000033c <unwind_phase2>

200004a0 <__gnu_Unwind_ForcedUnwind>:
200004a0:	b510      	push	{r4, lr}
200004a2:	6182      	str	r2, [r0, #24]
200004a4:	6bda      	ldr	r2, [r3, #60]	; 0x3c
200004a6:	60c1      	str	r1, [r0, #12]
200004a8:	641a      	str	r2, [r3, #64]	; 0x40
200004aa:	0019      	movs	r1, r3
200004ac:	2200      	movs	r2, #0
200004ae:	f7ff ff63 	bl	20000378 <unwind_phase2_forced>
200004b2:	bd10      	pop	{r4, pc}

200004b4 <__gnu_Unwind_Resume>:
200004b4:	6943      	ldr	r3, [r0, #20]
200004b6:	b570      	push	{r4, r5, r6, lr}
200004b8:	640b      	str	r3, [r1, #64]	; 0x40
200004ba:	68c3      	ldr	r3, [r0, #12]
200004bc:	0004      	movs	r4, r0
200004be:	000d      	movs	r5, r1
200004c0:	2b00      	cmp	r3, #0
200004c2:	d113      	bne.n	200004ec <__gnu_Unwind_Resume+0x38>
200004c4:	000a      	movs	r2, r1
200004c6:	6923      	ldr	r3, [r4, #16]
200004c8:	0001      	movs	r1, r0
200004ca:	2002      	movs	r0, #2
200004cc:	4798      	blx	r3
200004ce:	2807      	cmp	r0, #7
200004d0:	d005      	beq.n	200004de <__gnu_Unwind_Resume+0x2a>
200004d2:	2808      	cmp	r0, #8
200004d4:	d10f      	bne.n	200004f6 <__gnu_Unwind_Resume+0x42>
200004d6:	0029      	movs	r1, r5
200004d8:	0020      	movs	r0, r4
200004da:	f7ff ff2f 	bl	2000033c <unwind_phase2>
200004de:	2000      	movs	r0, #0
200004e0:	6c29      	ldr	r1, [r5, #64]	; 0x40
200004e2:	f7ff ff29 	bl	20000338 <_Unwind_DebugHook>
200004e6:	1d28      	adds	r0, r5, #4
200004e8:	f000 fb6a 	bl	20000bc0 <__restore_core_regs>
200004ec:	2201      	movs	r2, #1
200004ee:	f7ff ff43 	bl	20000378 <unwind_phase2_forced>
200004f2:	f000 fdd5 	bl	200010a0 <__abort_veneer>
200004f6:	f000 fdd3 	bl	200010a0 <__abort_veneer>
200004fa:	46c0      	nop			; (mov r8, r8)

200004fc <__gnu_Unwind_Resume_or_Rethrow>:
200004fc:	68c3      	ldr	r3, [r0, #12]
200004fe:	b510      	push	{r4, lr}
20000500:	2b00      	cmp	r3, #0
20000502:	d005      	beq.n	20000510 <__gnu_Unwind_Resume_or_Rethrow+0x14>
20000504:	6bcb      	ldr	r3, [r1, #60]	; 0x3c
20000506:	2200      	movs	r2, #0
20000508:	640b      	str	r3, [r1, #64]	; 0x40
2000050a:	f7ff ff35 	bl	20000378 <unwind_phase2_forced>
2000050e:	bd10      	pop	{r4, pc}
20000510:	f7ff ff9c 	bl	2000044c <__gnu_Unwind_RaiseException>
20000514:	e7fb      	b.n	2000050e <__gnu_Unwind_Resume_or_Rethrow+0x12>
20000516:	46c0      	nop			; (mov r8, r8)

20000518 <_Unwind_Complete>:
20000518:	4770      	bx	lr
2000051a:	46c0      	nop			; (mov r8, r8)

2000051c <_Unwind_DeleteException>:
2000051c:	6883      	ldr	r3, [r0, #8]
2000051e:	0001      	movs	r1, r0
20000520:	b510      	push	{r4, lr}
20000522:	2b00      	cmp	r3, #0
20000524:	d001      	beq.n	2000052a <_Unwind_DeleteException+0xe>
20000526:	2001      	movs	r0, #1
20000528:	4798      	blx	r3
2000052a:	bd10      	pop	{r4, pc}

2000052c <_Unwind_VRS_Get>:
2000052c:	2901      	cmp	r1, #1
2000052e:	d015      	beq.n	2000055c <_Unwind_VRS_Get+0x30>
20000530:	d80a      	bhi.n	20000548 <_Unwind_VRS_Get+0x1c>
20000532:	2b00      	cmp	r3, #0
20000534:	d110      	bne.n	20000558 <_Unwind_VRS_Get+0x2c>
20000536:	2a0f      	cmp	r2, #15
20000538:	d80e      	bhi.n	20000558 <_Unwind_VRS_Get+0x2c>
2000053a:	0092      	lsls	r2, r2, #2
2000053c:	1882      	adds	r2, r0, r2
2000053e:	6852      	ldr	r2, [r2, #4]
20000540:	9b00      	ldr	r3, [sp, #0]
20000542:	2000      	movs	r0, #0
20000544:	601a      	str	r2, [r3, #0]
20000546:	e006      	b.n	20000556 <_Unwind_VRS_Get+0x2a>
20000548:	2001      	movs	r0, #1
2000054a:	3903      	subs	r1, #3
2000054c:	b2c9      	uxtb	r1, r1
2000054e:	4288      	cmp	r0, r1
20000550:	4180      	sbcs	r0, r0
20000552:	4240      	negs	r0, r0
20000554:	3001      	adds	r0, #1
20000556:	4770      	bx	lr
20000558:	2002      	movs	r0, #2
2000055a:	e7fc      	b.n	20000556 <_Unwind_VRS_Get+0x2a>
2000055c:	2001      	movs	r0, #1
2000055e:	e7fa      	b.n	20000556 <_Unwind_VRS_Get+0x2a>

20000560 <_Unwind_GetGR>:
20000560:	b500      	push	{lr}
20000562:	b085      	sub	sp, #20
20000564:	ab03      	add	r3, sp, #12
20000566:	000a      	movs	r2, r1
20000568:	9300      	str	r3, [sp, #0]
2000056a:	2100      	movs	r1, #0
2000056c:	2300      	movs	r3, #0
2000056e:	f7ff ffdd 	bl	2000052c <_Unwind_VRS_Get>
20000572:	9803      	ldr	r0, [sp, #12]
20000574:	b005      	add	sp, #20
20000576:	bd00      	pop	{pc}

20000578 <_Unwind_VRS_Set>:
20000578:	2901      	cmp	r1, #1
2000057a:	d015      	beq.n	200005a8 <_Unwind_VRS_Set+0x30>
2000057c:	d80a      	bhi.n	20000594 <_Unwind_VRS_Set+0x1c>
2000057e:	2b00      	cmp	r3, #0
20000580:	d110      	bne.n	200005a4 <_Unwind_VRS_Set+0x2c>
20000582:	2a0f      	cmp	r2, #15
20000584:	d80e      	bhi.n	200005a4 <_Unwind_VRS_Set+0x2c>
20000586:	9b00      	ldr	r3, [sp, #0]
20000588:	0092      	lsls	r2, r2, #2
2000058a:	681b      	ldr	r3, [r3, #0]
2000058c:	1882      	adds	r2, r0, r2
2000058e:	6053      	str	r3, [r2, #4]
20000590:	2000      	movs	r0, #0
20000592:	e006      	b.n	200005a2 <_Unwind_VRS_Set+0x2a>
20000594:	2001      	movs	r0, #1
20000596:	3903      	subs	r1, #3
20000598:	b2c9      	uxtb	r1, r1
2000059a:	4288      	cmp	r0, r1
2000059c:	4180      	sbcs	r0, r0
2000059e:	4240      	negs	r0, r0
200005a0:	3001      	adds	r0, #1
200005a2:	4770      	bx	lr
200005a4:	2002      	movs	r0, #2
200005a6:	e7fc      	b.n	200005a2 <_Unwind_VRS_Set+0x2a>
200005a8:	2001      	movs	r0, #1
200005aa:	e7fa      	b.n	200005a2 <_Unwind_VRS_Set+0x2a>

200005ac <_Unwind_SetGR>:
200005ac:	b500      	push	{lr}
200005ae:	b085      	sub	sp, #20
200005b0:	ab03      	add	r3, sp, #12
200005b2:	9203      	str	r2, [sp, #12]
200005b4:	9300      	str	r3, [sp, #0]
200005b6:	000a      	movs	r2, r1
200005b8:	2300      	movs	r3, #0
200005ba:	2100      	movs	r1, #0
200005bc:	f7ff ffdc 	bl	20000578 <_Unwind_VRS_Set>
200005c0:	b005      	add	sp, #20
200005c2:	bd00      	pop	{pc}

200005c4 <__gnu_Unwind_Backtrace>:
200005c4:	b570      	push	{r4, r5, r6, lr}
200005c6:	4c1a      	ldr	r4, [pc, #104]	; (20000630 <__gnu_Unwind_Backtrace+0x6c>)
200005c8:	6bd3      	ldr	r3, [r2, #60]	; 0x3c
200005ca:	44a5      	add	sp, r4
200005cc:	6413      	str	r3, [r2, #64]	; 0x40
200005ce:	0005      	movs	r5, r0
200005d0:	000c      	movs	r4, r1
200005d2:	a819      	add	r0, sp, #100	; 0x64
200005d4:	1d11      	adds	r1, r2, #4
200005d6:	2240      	movs	r2, #64	; 0x40
200005d8:	f000 fd6a 	bl	200010b0 <____wrap_memcpy_veneer>
200005dc:	2301      	movs	r3, #1
200005de:	425b      	negs	r3, r3
200005e0:	9318      	str	r3, [sp, #96]	; 0x60
200005e2:	e014      	b.n	2000060e <__gnu_Unwind_Backtrace+0x4a>
200005e4:	210c      	movs	r1, #12
200005e6:	a818      	add	r0, sp, #96	; 0x60
200005e8:	aa02      	add	r2, sp, #8
200005ea:	f7ff ffdf 	bl	200005ac <_Unwind_SetGR>
200005ee:	0021      	movs	r1, r4
200005f0:	a818      	add	r0, sp, #96	; 0x60
200005f2:	47a8      	blx	r5
200005f4:	2800      	cmp	r0, #0
200005f6:	d112      	bne.n	2000061e <__gnu_Unwind_Backtrace+0x5a>
200005f8:	9b06      	ldr	r3, [sp, #24]
200005fa:	aa18      	add	r2, sp, #96	; 0x60
200005fc:	a902      	add	r1, sp, #8
200005fe:	3008      	adds	r0, #8
20000600:	9301      	str	r3, [sp, #4]
20000602:	4798      	blx	r3
20000604:	0006      	movs	r6, r0
20000606:	2805      	cmp	r0, #5
20000608:	d00a      	beq.n	20000620 <__gnu_Unwind_Backtrace+0x5c>
2000060a:	2809      	cmp	r0, #9
2000060c:	d007      	beq.n	2000061e <__gnu_Unwind_Backtrace+0x5a>
2000060e:	9b28      	ldr	r3, [sp, #160]	; 0xa0
20000610:	a802      	add	r0, sp, #8
20000612:	0019      	movs	r1, r3
20000614:	9301      	str	r3, [sp, #4]
20000616:	f7ff fe0b 	bl	20000230 <get_eit_entry>
2000061a:	2800      	cmp	r0, #0
2000061c:	d0e2      	beq.n	200005e4 <__gnu_Unwind_Backtrace+0x20>
2000061e:	2609      	movs	r6, #9
20000620:	a818      	add	r0, sp, #96	; 0x60
20000622:	f7ff fe53 	bl	200002cc <restore_non_core_regs>
20000626:	0030      	movs	r0, r6
20000628:	2390      	movs	r3, #144	; 0x90
2000062a:	009b      	lsls	r3, r3, #2
2000062c:	449d      	add	sp, r3
2000062e:	bd70      	pop	{r4, r5, r6, pc}
20000630:	fffffdc0 	.word	0xfffffdc0

20000634 <__gnu_unwind_pr_common>:
20000634:	b5f0      	push	{r4, r5, r6, r7, lr}
20000636:	4657      	mov	r7, sl
20000638:	4692      	mov	sl, r2
2000063a:	2203      	movs	r2, #3
2000063c:	4645      	mov	r5, r8
2000063e:	464e      	mov	r6, r9
20000640:	46de      	mov	lr, fp
20000642:	4699      	mov	r9, r3
20000644:	0013      	movs	r3, r2
20000646:	b5e0      	push	{r5, r6, r7, lr}
20000648:	4688      	mov	r8, r1
2000064a:	6ccd      	ldr	r5, [r1, #76]	; 0x4c
2000064c:	4649      	mov	r1, r9
2000064e:	b089      	sub	sp, #36	; 0x24
20000650:	4003      	ands	r3, r0
20000652:	9300      	str	r3, [sp, #0]
20000654:	cd08      	ldmia	r5!, {r3}
20000656:	9506      	str	r5, [sp, #24]
20000658:	2900      	cmp	r1, #0
2000065a:	d100      	bne.n	2000065e <__gnu_unwind_pr_common+0x2a>
2000065c:	e080      	b.n	20000760 <__gnu_unwind_pr_common+0x12c>
2000065e:	0c1a      	lsrs	r2, r3, #16
20000660:	041b      	lsls	r3, r3, #16
20000662:	9305      	str	r3, [sp, #20]
20000664:	2302      	movs	r3, #2
20000666:	a904      	add	r1, sp, #16
20000668:	730b      	strb	r3, [r1, #12]
2000066a:	33fd      	adds	r3, #253	; 0xfd
2000066c:	4013      	ands	r3, r2
2000066e:	009b      	lsls	r3, r3, #2
20000670:	734a      	strb	r2, [r1, #13]
20000672:	18ed      	adds	r5, r5, r3
20000674:	9b00      	ldr	r3, [sp, #0]
20000676:	2b02      	cmp	r3, #2
20000678:	d101      	bne.n	2000067e <__gnu_unwind_pr_common+0x4a>
2000067a:	4643      	mov	r3, r8
2000067c:	6b9d      	ldr	r5, [r3, #56]	; 0x38
2000067e:	4643      	mov	r3, r8
20000680:	6d1b      	ldr	r3, [r3, #80]	; 0x50
20000682:	07db      	lsls	r3, r3, #31
20000684:	d50f      	bpl.n	200006a6 <__gnu_unwind_pr_common+0x72>
20000686:	4650      	mov	r0, sl
20000688:	a905      	add	r1, sp, #20
2000068a:	f000 fb65 	bl	20000d58 <__gnu_unwind_execute>
2000068e:	2800      	cmp	r0, #0
20000690:	d101      	bne.n	20000696 <__gnu_unwind_pr_common+0x62>
20000692:	2008      	movs	r0, #8
20000694:	e000      	b.n	20000698 <__gnu_unwind_pr_common+0x64>
20000696:	2009      	movs	r0, #9
20000698:	b009      	add	sp, #36	; 0x24
2000069a:	bc3c      	pop	{r2, r3, r4, r5}
2000069c:	4690      	mov	r8, r2
2000069e:	4699      	mov	r9, r3
200006a0:	46a2      	mov	sl, r4
200006a2:	46ab      	mov	fp, r5
200006a4:	bdf0      	pop	{r4, r5, r6, r7, pc}
200006a6:	682f      	ldr	r7, [r5, #0]
200006a8:	2f00      	cmp	r7, #0
200006aa:	d0ec      	beq.n	20000686 <__gnu_unwind_pr_common+0x52>
200006ac:	2308      	movs	r3, #8
200006ae:	4003      	ands	r3, r0
200006b0:	9302      	str	r3, [sp, #8]
200006b2:	2300      	movs	r3, #0
200006b4:	9301      	str	r3, [sp, #4]
200006b6:	3301      	adds	r3, #1
200006b8:	4654      	mov	r4, sl
200006ba:	469b      	mov	fp, r3
200006bc:	4646      	mov	r6, r8
200006be:	46ba      	mov	sl, r7
200006c0:	464b      	mov	r3, r9
200006c2:	2b02      	cmp	r3, #2
200006c4:	d049      	beq.n	2000075a <__gnu_unwind_pr_common+0x126>
200006c6:	882b      	ldrh	r3, [r5, #0]
200006c8:	886f      	ldrh	r7, [r5, #2]
200006ca:	469a      	mov	sl, r3
200006cc:	3504      	adds	r5, #4
200006ce:	465b      	mov	r3, fp
200006d0:	0038      	movs	r0, r7
200006d2:	4398      	bics	r0, r3
200006d4:	6cb3      	ldr	r3, [r6, #72]	; 0x48
200006d6:	210f      	movs	r1, #15
200006d8:	4698      	mov	r8, r3
200006da:	4480      	add	r8, r0
200006dc:	0020      	movs	r0, r4
200006de:	f7ff ff3f 	bl	20000560 <_Unwind_GetGR>
200006e2:	2300      	movs	r3, #0
200006e4:	4580      	cmp	r8, r0
200006e6:	d806      	bhi.n	200006f6 <__gnu_unwind_pr_common+0xc2>
200006e8:	4653      	mov	r3, sl
200006ea:	465a      	mov	r2, fp
200006ec:	4393      	bics	r3, r2
200006ee:	4443      	add	r3, r8
200006f0:	4298      	cmp	r0, r3
200006f2:	419b      	sbcs	r3, r3
200006f4:	425b      	negs	r3, r3
200006f6:	2202      	movs	r2, #2
200006f8:	007f      	lsls	r7, r7, #1
200006fa:	4017      	ands	r7, r2
200006fc:	4659      	mov	r1, fp
200006fe:	4652      	mov	r2, sl
20000700:	400a      	ands	r2, r1
20000702:	4317      	orrs	r7, r2
20000704:	2f01      	cmp	r7, #1
20000706:	d030      	beq.n	2000076a <__gnu_unwind_pr_common+0x136>
20000708:	2f02      	cmp	r7, #2
2000070a:	d04c      	beq.n	200007a6 <__gnu_unwind_pr_common+0x172>
2000070c:	2f00      	cmp	r7, #0
2000070e:	d1c2      	bne.n	20000696 <__gnu_unwind_pr_common+0x62>
20000710:	9a00      	ldr	r2, [sp, #0]
20000712:	2a00      	cmp	r2, #0
20000714:	d002      	beq.n	2000071c <__gnu_unwind_pr_common+0xe8>
20000716:	2b00      	cmp	r3, #0
20000718:	d000      	beq.n	2000071c <__gnu_unwind_pr_common+0xe8>
2000071a:	e09b      	b.n	20000854 <__gnu_unwind_pr_common+0x220>
2000071c:	3504      	adds	r5, #4
2000071e:	682b      	ldr	r3, [r5, #0]
20000720:	469a      	mov	sl, r3
20000722:	2b00      	cmp	r3, #0
20000724:	d1cc      	bne.n	200006c0 <__gnu_unwind_pr_common+0x8c>
20000726:	0020      	movs	r0, r4
20000728:	a905      	add	r1, sp, #20
2000072a:	46a2      	mov	sl, r4
2000072c:	f000 fb14 	bl	20000d58 <__gnu_unwind_execute>
20000730:	2800      	cmp	r0, #0
20000732:	d1b0      	bne.n	20000696 <__gnu_unwind_pr_common+0x62>
20000734:	9b01      	ldr	r3, [sp, #4]
20000736:	2b00      	cmp	r3, #0
20000738:	d0ab      	beq.n	20000692 <__gnu_unwind_pr_common+0x5e>
2000073a:	210f      	movs	r1, #15
2000073c:	4650      	mov	r0, sl
2000073e:	f7ff ff0f 	bl	20000560 <_Unwind_GetGR>
20000742:	210e      	movs	r1, #14
20000744:	0002      	movs	r2, r0
20000746:	4650      	mov	r0, sl
20000748:	f7ff ff30 	bl	200005ac <_Unwind_SetGR>
2000074c:	4650      	mov	r0, sl
2000074e:	210f      	movs	r1, #15
20000750:	4a72      	ldr	r2, [pc, #456]	; (2000091c <__gnu_unwind_pr_common+0x2e8>)
20000752:	f7ff ff2b 	bl	200005ac <_Unwind_SetGR>
20000756:	2007      	movs	r0, #7
20000758:	e79e      	b.n	20000698 <__gnu_unwind_pr_common+0x64>
2000075a:	686f      	ldr	r7, [r5, #4]
2000075c:	3508      	adds	r5, #8
2000075e:	e7b6      	b.n	200006ce <__gnu_unwind_pr_common+0x9a>
20000760:	021b      	lsls	r3, r3, #8
20000762:	9305      	str	r3, [sp, #20]
20000764:	ab04      	add	r3, sp, #16
20000766:	819a      	strh	r2, [r3, #12]
20000768:	e784      	b.n	20000674 <__gnu_unwind_pr_common+0x40>
2000076a:	9a00      	ldr	r2, [sp, #0]
2000076c:	2a00      	cmp	r2, #0
2000076e:	d149      	bne.n	20000804 <__gnu_unwind_pr_common+0x1d0>
20000770:	2b00      	cmp	r3, #0
20000772:	d016      	beq.n	200007a2 <__gnu_unwind_pr_common+0x16e>
20000774:	682b      	ldr	r3, [r5, #0]
20000776:	0fdf      	lsrs	r7, r3, #31
20000778:	686b      	ldr	r3, [r5, #4]
2000077a:	1c9a      	adds	r2, r3, #2
2000077c:	d100      	bne.n	20000780 <__gnu_unwind_pr_common+0x14c>
2000077e:	e78a      	b.n	20000696 <__gnu_unwind_pr_common+0x62>
20000780:	0032      	movs	r2, r6
20000782:	3258      	adds	r2, #88	; 0x58
20000784:	9204      	str	r2, [sp, #16]
20000786:	3301      	adds	r3, #1
20000788:	d100      	bne.n	2000078c <__gnu_unwind_pr_common+0x158>
2000078a:	e0b6      	b.n	200008fa <__gnu_unwind_pr_common+0x2c6>
2000078c:	1d28      	adds	r0, r5, #4
2000078e:	f7ff fdcb 	bl	20000328 <_Unwind_decode_typeinfo_ptr.isra.0>
20000792:	003a      	movs	r2, r7
20000794:	0001      	movs	r1, r0
20000796:	ab04      	add	r3, sp, #16
20000798:	0030      	movs	r0, r6
2000079a:	f000 fc99 	bl	200010d0 <____cxa_type_match_veneer>
2000079e:	2800      	cmp	r0, #0
200007a0:	d16c      	bne.n	2000087c <__gnu_unwind_pr_common+0x248>
200007a2:	3508      	adds	r5, #8
200007a4:	e7bb      	b.n	2000071e <__gnu_unwind_pr_common+0xea>
200007a6:	682a      	ldr	r2, [r5, #0]
200007a8:	9900      	ldr	r1, [sp, #0]
200007aa:	0057      	lsls	r7, r2, #1
200007ac:	087f      	lsrs	r7, r7, #1
200007ae:	2900      	cmp	r1, #0
200007b0:	d10d      	bne.n	200007ce <__gnu_unwind_pr_common+0x19a>
200007b2:	2b00      	cmp	r3, #0
200007b4:	d004      	beq.n	200007c0 <__gnu_unwind_pr_common+0x18c>
200007b6:	9b02      	ldr	r3, [sp, #8]
200007b8:	2b00      	cmp	r3, #0
200007ba:	d072      	beq.n	200008a2 <__gnu_unwind_pr_common+0x26e>
200007bc:	2f00      	cmp	r7, #0
200007be:	d03c      	beq.n	2000083a <__gnu_unwind_pr_common+0x206>
200007c0:	2a00      	cmp	r2, #0
200007c2:	da00      	bge.n	200007c6 <__gnu_unwind_pr_common+0x192>
200007c4:	3504      	adds	r5, #4
200007c6:	3701      	adds	r7, #1
200007c8:	00bf      	lsls	r7, r7, #2
200007ca:	19ed      	adds	r5, r5, r7
200007cc:	e7a7      	b.n	2000071e <__gnu_unwind_pr_common+0xea>
200007ce:	6a33      	ldr	r3, [r6, #32]
200007d0:	210d      	movs	r1, #13
200007d2:	0020      	movs	r0, r4
200007d4:	4698      	mov	r8, r3
200007d6:	f7ff fec3 	bl	20000560 <_Unwind_GetGR>
200007da:	4580      	cmp	r8, r0
200007dc:	d001      	beq.n	200007e2 <__gnu_unwind_pr_common+0x1ae>
200007de:	682a      	ldr	r2, [r5, #0]
200007e0:	e7ee      	b.n	200007c0 <__gnu_unwind_pr_common+0x18c>
200007e2:	6ab3      	ldr	r3, [r6, #40]	; 0x28
200007e4:	429d      	cmp	r5, r3
200007e6:	d1fa      	bne.n	200007de <__gnu_unwind_pr_common+0x1aa>
200007e8:	2300      	movs	r3, #0
200007ea:	62f3      	str	r3, [r6, #44]	; 0x2c
200007ec:	3304      	adds	r3, #4
200007ee:	6333      	str	r3, [r6, #48]	; 0x30
200007f0:	1d2b      	adds	r3, r5, #4
200007f2:	62b7      	str	r7, [r6, #40]	; 0x28
200007f4:	6373      	str	r3, [r6, #52]	; 0x34
200007f6:	682b      	ldr	r3, [r5, #0]
200007f8:	2b00      	cmp	r3, #0
200007fa:	da00      	bge.n	200007fe <__gnu_unwind_pr_common+0x1ca>
200007fc:	e087      	b.n	2000090e <__gnu_unwind_pr_common+0x2da>
200007fe:	2301      	movs	r3, #1
20000800:	9301      	str	r3, [sp, #4]
20000802:	e7e0      	b.n	200007c6 <__gnu_unwind_pr_common+0x192>
20000804:	210d      	movs	r1, #13
20000806:	0020      	movs	r0, r4
20000808:	6a37      	ldr	r7, [r6, #32]
2000080a:	f7ff fea9 	bl	20000560 <_Unwind_GetGR>
2000080e:	4287      	cmp	r7, r0
20000810:	d1c7      	bne.n	200007a2 <__gnu_unwind_pr_common+0x16e>
20000812:	6ab3      	ldr	r3, [r6, #40]	; 0x28
20000814:	429d      	cmp	r5, r3
20000816:	d1c4      	bne.n	200007a2 <__gnu_unwind_pr_common+0x16e>
20000818:	46b0      	mov	r8, r6
2000081a:	46a2      	mov	sl, r4
2000081c:	0028      	movs	r0, r5
2000081e:	f7ff fcad 	bl	2000017c <selfrel_offset31>
20000822:	210f      	movs	r1, #15
20000824:	0002      	movs	r2, r0
20000826:	4650      	mov	r0, sl
20000828:	f7ff fec0 	bl	200005ac <_Unwind_SetGR>
2000082c:	4650      	mov	r0, sl
2000082e:	4642      	mov	r2, r8
20000830:	2100      	movs	r1, #0
20000832:	f7ff febb 	bl	200005ac <_Unwind_SetGR>
20000836:	2007      	movs	r0, #7
20000838:	e72e      	b.n	20000698 <__gnu_unwind_pr_common+0x64>
2000083a:	46b0      	mov	r8, r6
2000083c:	46a2      	mov	sl, r4
2000083e:	210d      	movs	r1, #13
20000840:	4650      	mov	r0, sl
20000842:	f7ff fe8d 	bl	20000560 <_Unwind_GetGR>
20000846:	4643      	mov	r3, r8
20000848:	9a04      	ldr	r2, [sp, #16]
2000084a:	6218      	str	r0, [r3, #32]
2000084c:	625a      	str	r2, [r3, #36]	; 0x24
2000084e:	2006      	movs	r0, #6
20000850:	629d      	str	r5, [r3, #40]	; 0x28
20000852:	e721      	b.n	20000698 <__gnu_unwind_pr_common+0x64>
20000854:	0028      	movs	r0, r5
20000856:	f7ff fc91 	bl	2000017c <selfrel_offset31>
2000085a:	3504      	adds	r5, #4
2000085c:	46a2      	mov	sl, r4
2000085e:	63b5      	str	r5, [r6, #56]	; 0x38
20000860:	0004      	movs	r4, r0
20000862:	0030      	movs	r0, r6
20000864:	f000 fc2c 	bl	200010c0 <____cxa_begin_cleanup_veneer>
20000868:	2800      	cmp	r0, #0
2000086a:	d100      	bne.n	2000086e <__gnu_unwind_pr_common+0x23a>
2000086c:	e713      	b.n	20000696 <__gnu_unwind_pr_common+0x62>
2000086e:	4650      	mov	r0, sl
20000870:	0022      	movs	r2, r4
20000872:	210f      	movs	r1, #15
20000874:	f7ff fe9a 	bl	200005ac <_Unwind_SetGR>
20000878:	2007      	movs	r0, #7
2000087a:	e70d      	b.n	20000698 <__gnu_unwind_pr_common+0x64>
2000087c:	46a2      	mov	sl, r4
2000087e:	210d      	movs	r1, #13
20000880:	0004      	movs	r4, r0
20000882:	4650      	mov	r0, sl
20000884:	f7ff fe6c 	bl	20000560 <_Unwind_GetGR>
20000888:	46b0      	mov	r8, r6
2000088a:	0033      	movs	r3, r6
2000088c:	6230      	str	r0, [r6, #32]
2000088e:	2c02      	cmp	r4, #2
20000890:	d139      	bne.n	20000906 <__gnu_unwind_pr_common+0x2d2>
20000892:	9a04      	ldr	r2, [sp, #16]
20000894:	332c      	adds	r3, #44	; 0x2c
20000896:	62f2      	str	r2, [r6, #44]	; 0x2c
20000898:	6273      	str	r3, [r6, #36]	; 0x24
2000089a:	4643      	mov	r3, r8
2000089c:	2006      	movs	r0, #6
2000089e:	629d      	str	r5, [r3, #40]	; 0x28
200008a0:	e6fa      	b.n	20000698 <__gnu_unwind_pr_common+0x64>
200008a2:	1d2b      	adds	r3, r5, #4
200008a4:	469a      	mov	sl, r3
200008a6:	2300      	movs	r3, #0
200008a8:	4698      	mov	r8, r3
200008aa:	3358      	adds	r3, #88	; 0x58
200008ac:	469c      	mov	ip, r3
200008ae:	0021      	movs	r1, r4
200008b0:	464a      	mov	r2, r9
200008b2:	44b4      	add	ip, r6
200008b4:	4654      	mov	r4, sl
200008b6:	46a9      	mov	r9, r5
200008b8:	468a      	mov	sl, r1
200008ba:	003d      	movs	r5, r7
200008bc:	9203      	str	r2, [sp, #12]
200008be:	4647      	mov	r7, r8
200008c0:	46e0      	mov	r8, ip
200008c2:	e00e      	b.n	200008e2 <__gnu_unwind_pr_common+0x2ae>
200008c4:	4643      	mov	r3, r8
200008c6:	0020      	movs	r0, r4
200008c8:	9304      	str	r3, [sp, #16]
200008ca:	f7ff fd2d 	bl	20000328 <_Unwind_decode_typeinfo_ptr.isra.0>
200008ce:	2200      	movs	r2, #0
200008d0:	0001      	movs	r1, r0
200008d2:	ab04      	add	r3, sp, #16
200008d4:	0030      	movs	r0, r6
200008d6:	f000 fbfb 	bl	200010d0 <____cxa_type_match_veneer>
200008da:	3701      	adds	r7, #1
200008dc:	3404      	adds	r4, #4
200008de:	2800      	cmp	r0, #0
200008e0:	d104      	bne.n	200008ec <__gnu_unwind_pr_common+0x2b8>
200008e2:	42af      	cmp	r7, r5
200008e4:	d1ee      	bne.n	200008c4 <__gnu_unwind_pr_common+0x290>
200008e6:	464d      	mov	r5, r9
200008e8:	46b0      	mov	r8, r6
200008ea:	e7a8      	b.n	2000083e <__gnu_unwind_pr_common+0x20a>
200008ec:	002f      	movs	r7, r5
200008ee:	464d      	mov	r5, r9
200008f0:	9b03      	ldr	r3, [sp, #12]
200008f2:	4654      	mov	r4, sl
200008f4:	4699      	mov	r9, r3
200008f6:	682a      	ldr	r2, [r5, #0]
200008f8:	e762      	b.n	200007c0 <__gnu_unwind_pr_common+0x18c>
200008fa:	210d      	movs	r1, #13
200008fc:	0020      	movs	r0, r4
200008fe:	f7ff fe2f 	bl	20000560 <_Unwind_GetGR>
20000902:	46b0      	mov	r8, r6
20000904:	6230      	str	r0, [r6, #32]
20000906:	4643      	mov	r3, r8
20000908:	9a04      	ldr	r2, [sp, #16]
2000090a:	625a      	str	r2, [r3, #36]	; 0x24
2000090c:	e7c5      	b.n	2000089a <__gnu_unwind_pr_common+0x266>
2000090e:	1c78      	adds	r0, r7, #1
20000910:	0080      	lsls	r0, r0, #2
20000912:	46b0      	mov	r8, r6
20000914:	46a2      	mov	sl, r4
20000916:	1828      	adds	r0, r5, r0
20000918:	e781      	b.n	2000081e <__gnu_unwind_pr_common+0x1ea>
2000091a:	46c0      	nop			; (mov r8, r8)
2000091c:	100033bd 	.word	0x100033bd

20000920 <__aeabi_unwind_cpp_pr0>:
20000920:	b510      	push	{r4, lr}
20000922:	2300      	movs	r3, #0
20000924:	f7ff fe86 	bl	20000634 <__gnu_unwind_pr_common>
20000928:	bd10      	pop	{r4, pc}
2000092a:	46c0      	nop			; (mov r8, r8)

2000092c <__aeabi_unwind_cpp_pr1>:
2000092c:	b510      	push	{r4, lr}
2000092e:	2301      	movs	r3, #1
20000930:	f7ff fe80 	bl	20000634 <__gnu_unwind_pr_common>
20000934:	bd10      	pop	{r4, pc}
20000936:	46c0      	nop			; (mov r8, r8)

20000938 <__aeabi_unwind_cpp_pr2>:
20000938:	b510      	push	{r4, lr}
2000093a:	2302      	movs	r3, #2
2000093c:	f7ff fe7a 	bl	20000634 <__gnu_unwind_pr_common>
20000940:	bd10      	pop	{r4, pc}
20000942:	46c0      	nop			; (mov r8, r8)

20000944 <_Unwind_VRS_Pop>:
20000944:	b5f0      	push	{r4, r5, r6, r7, lr}
20000946:	46ce      	mov	lr, r9
20000948:	4647      	mov	r7, r8
2000094a:	b580      	push	{r7, lr}
2000094c:	0005      	movs	r5, r0
2000094e:	0014      	movs	r4, r2
20000950:	001e      	movs	r6, r3
20000952:	b0c3      	sub	sp, #268	; 0x10c
20000954:	2903      	cmp	r1, #3
20000956:	d070      	beq.n	20000a3a <_Unwind_VRS_Pop+0xf6>
20000958:	d84d      	bhi.n	200009f6 <_Unwind_VRS_Pop+0xb2>
2000095a:	2900      	cmp	r1, #0
2000095c:	d100      	bne.n	20000960 <_Unwind_VRS_Pop+0x1c>
2000095e:	e074      	b.n	20000a4a <_Unwind_VRS_Pop+0x106>
20000960:	2901      	cmp	r1, #1
20000962:	d16c      	bne.n	20000a3e <_Unwind_VRS_Pop+0xfa>
20000964:	0c13      	lsrs	r3, r2, #16
20000966:	0414      	lsls	r4, r2, #16
20000968:	4698      	mov	r8, r3
2000096a:	0c24      	lsrs	r4, r4, #16
2000096c:	2e01      	cmp	r6, #1
2000096e:	d100      	bne.n	20000972 <_Unwind_VRS_Pop+0x2e>
20000970:	e0a8      	b.n	20000ac4 <_Unwind_VRS_Pop+0x180>
20000972:	2e05      	cmp	r6, #5
20000974:	d163      	bne.n	20000a3e <_Unwind_VRS_Pop+0xfa>
20000976:	191b      	adds	r3, r3, r4
20000978:	2b20      	cmp	r3, #32
2000097a:	d860      	bhi.n	20000a3e <_Unwind_VRS_Pop+0xfa>
2000097c:	4642      	mov	r2, r8
2000097e:	2a0f      	cmp	r2, #15
20000980:	d800      	bhi.n	20000984 <_Unwind_VRS_Pop+0x40>
20000982:	e0c0      	b.n	20000b06 <_Unwind_VRS_Pop+0x1c2>
20000984:	46a1      	mov	r9, r4
20000986:	2c00      	cmp	r4, #0
20000988:	d000      	beq.n	2000098c <_Unwind_VRS_Pop+0x48>
2000098a:	e0d1      	b.n	20000b30 <_Unwind_VRS_Pop+0x1ec>
2000098c:	6baa      	ldr	r2, [r5, #56]	; 0x38
2000098e:	af20      	add	r7, sp, #128	; 0x80
20000990:	2c00      	cmp	r4, #0
20000992:	d02e      	beq.n	200009f2 <_Unwind_VRS_Pop+0xae>
20000994:	2300      	movs	r3, #0
20000996:	4699      	mov	r9, r3
20000998:	4643      	mov	r3, r8
2000099a:	00db      	lsls	r3, r3, #3
2000099c:	18ff      	adds	r7, r7, r3
2000099e:	2300      	movs	r3, #0
200009a0:	00e4      	lsls	r4, r4, #3
200009a2:	58d1      	ldr	r1, [r2, r3]
200009a4:	50f9      	str	r1, [r7, r3]
200009a6:	3304      	adds	r3, #4
200009a8:	429c      	cmp	r4, r3
200009aa:	d1fa      	bne.n	200009a2 <_Unwind_VRS_Pop+0x5e>
200009ac:	464b      	mov	r3, r9
200009ae:	1912      	adds	r2, r2, r4
200009b0:	2b00      	cmp	r3, #0
200009b2:	d010      	beq.n	200009d6 <_Unwind_VRS_Pop+0x92>
200009b4:	466f      	mov	r7, sp
200009b6:	4640      	mov	r0, r8
200009b8:	2810      	cmp	r0, #16
200009ba:	d200      	bcs.n	200009be <_Unwind_VRS_Pop+0x7a>
200009bc:	2010      	movs	r0, #16
200009be:	464b      	mov	r3, r9
200009c0:	00d9      	lsls	r1, r3, #3
200009c2:	2300      	movs	r3, #0
200009c4:	3810      	subs	r0, #16
200009c6:	00c0      	lsls	r0, r0, #3
200009c8:	1838      	adds	r0, r7, r0
200009ca:	58d4      	ldr	r4, [r2, r3]
200009cc:	50c4      	str	r4, [r0, r3]
200009ce:	3304      	adds	r3, #4
200009d0:	4299      	cmp	r1, r3
200009d2:	d1fa      	bne.n	200009ca <_Unwind_VRS_Pop+0x86>
200009d4:	1852      	adds	r2, r2, r1
200009d6:	2e01      	cmp	r6, #1
200009d8:	d100      	bne.n	200009dc <_Unwind_VRS_Pop+0x98>
200009da:	e0cf      	b.n	20000b7c <_Unwind_VRS_Pop+0x238>
200009dc:	4643      	mov	r3, r8
200009de:	63aa      	str	r2, [r5, #56]	; 0x38
200009e0:	2b0f      	cmp	r3, #15
200009e2:	d800      	bhi.n	200009e6 <_Unwind_VRS_Pop+0xa2>
200009e4:	e0cc      	b.n	20000b80 <_Unwind_VRS_Pop+0x23c>
200009e6:	464b      	mov	r3, r9
200009e8:	2b00      	cmp	r3, #0
200009ea:	d002      	beq.n	200009f2 <_Unwind_VRS_Pop+0xae>
200009ec:	4668      	mov	r0, sp
200009ee:	f000 f905 	bl	20000bfc <__gnu_Unwind_Restore_VFP_D_16_to_31>
200009f2:	2000      	movs	r0, #0
200009f4:	e024      	b.n	20000a40 <_Unwind_VRS_Pop+0xfc>
200009f6:	2904      	cmp	r1, #4
200009f8:	d121      	bne.n	20000a3e <_Unwind_VRS_Pop+0xfa>
200009fa:	2b00      	cmp	r3, #0
200009fc:	d11f      	bne.n	20000a3e <_Unwind_VRS_Pop+0xfa>
200009fe:	2a10      	cmp	r2, #16
20000a00:	d81d      	bhi.n	20000a3e <_Unwind_VRS_Pop+0xfa>
20000a02:	2210      	movs	r2, #16
20000a04:	6803      	ldr	r3, [r0, #0]
20000a06:	421a      	tst	r2, r3
20000a08:	d000      	beq.n	20000a0c <_Unwind_VRS_Pop+0xc8>
20000a0a:	e0a9      	b.n	20000b60 <_Unwind_VRS_Pop+0x21c>
20000a0c:	af20      	add	r7, sp, #128	; 0x80
20000a0e:	0038      	movs	r0, r7
20000a10:	f000 f8fe 	bl	20000c10 <__gnu_Unwind_Save_WMMXC>
20000a14:	2300      	movs	r3, #0
20000a16:	2001      	movs	r0, #1
20000a18:	6baa      	ldr	r2, [r5, #56]	; 0x38
20000a1a:	0001      	movs	r1, r0
20000a1c:	4099      	lsls	r1, r3
20000a1e:	420c      	tst	r4, r1
20000a20:	d002      	beq.n	20000a28 <_Unwind_VRS_Pop+0xe4>
20000a22:	ca40      	ldmia	r2!, {r6}
20000a24:	0099      	lsls	r1, r3, #2
20000a26:	507e      	str	r6, [r7, r1]
20000a28:	3301      	adds	r3, #1
20000a2a:	2b04      	cmp	r3, #4
20000a2c:	d1f5      	bne.n	20000a1a <_Unwind_VRS_Pop+0xd6>
20000a2e:	0038      	movs	r0, r7
20000a30:	63aa      	str	r2, [r5, #56]	; 0x38
20000a32:	f000 f8eb 	bl	20000c0c <__gnu_Unwind_Restore_WMMXC>
20000a36:	2000      	movs	r0, #0
20000a38:	e002      	b.n	20000a40 <_Unwind_VRS_Pop+0xfc>
20000a3a:	2b03      	cmp	r3, #3
20000a3c:	d01f      	beq.n	20000a7e <_Unwind_VRS_Pop+0x13a>
20000a3e:	2002      	movs	r0, #2
20000a40:	b043      	add	sp, #268	; 0x10c
20000a42:	bc0c      	pop	{r2, r3}
20000a44:	4690      	mov	r8, r2
20000a46:	4699      	mov	r9, r3
20000a48:	bdf0      	pop	{r4, r5, r6, r7, pc}
20000a4a:	2b00      	cmp	r3, #0
20000a4c:	d1f7      	bne.n	20000a3e <_Unwind_VRS_Pop+0xfa>
20000a4e:	2101      	movs	r1, #1
20000a50:	4688      	mov	r8, r1
20000a52:	1d29      	adds	r1, r5, #4
20000a54:	2300      	movs	r3, #0
20000a56:	468c      	mov	ip, r1
20000a58:	0410      	lsls	r0, r2, #16
20000a5a:	6baa      	ldr	r2, [r5, #56]	; 0x38
20000a5c:	0c00      	lsrs	r0, r0, #16
20000a5e:	4641      	mov	r1, r8
20000a60:	4099      	lsls	r1, r3
20000a62:	4208      	tst	r0, r1
20000a64:	d003      	beq.n	20000a6e <_Unwind_VRS_Pop+0x12a>
20000a66:	4666      	mov	r6, ip
20000a68:	ca80      	ldmia	r2!, {r7}
20000a6a:	0099      	lsls	r1, r3, #2
20000a6c:	5077      	str	r7, [r6, r1]
20000a6e:	3301      	adds	r3, #1
20000a70:	2b10      	cmp	r3, #16
20000a72:	d1f4      	bne.n	20000a5e <_Unwind_VRS_Pop+0x11a>
20000a74:	2000      	movs	r0, #0
20000a76:	04a3      	lsls	r3, r4, #18
20000a78:	d4e2      	bmi.n	20000a40 <_Unwind_VRS_Pop+0xfc>
20000a7a:	63aa      	str	r2, [r5, #56]	; 0x38
20000a7c:	e7e0      	b.n	20000a40 <_Unwind_VRS_Pop+0xfc>
20000a7e:	0414      	lsls	r4, r2, #16
20000a80:	0c16      	lsrs	r6, r2, #16
20000a82:	0c24      	lsrs	r4, r4, #16
20000a84:	1933      	adds	r3, r6, r4
20000a86:	2b10      	cmp	r3, #16
20000a88:	d8d9      	bhi.n	20000a3e <_Unwind_VRS_Pop+0xfa>
20000a8a:	2208      	movs	r2, #8
20000a8c:	6803      	ldr	r3, [r0, #0]
20000a8e:	421a      	tst	r2, r3
20000a90:	d16d      	bne.n	20000b6e <_Unwind_VRS_Pop+0x22a>
20000a92:	af20      	add	r7, sp, #128	; 0x80
20000a94:	0038      	movs	r0, r7
20000a96:	f000 f8b7 	bl	20000c08 <__gnu_Unwind_Save_WMMXD>
20000a9a:	00f6      	lsls	r6, r6, #3
20000a9c:	6bab      	ldr	r3, [r5, #56]	; 0x38
20000a9e:	2c00      	cmp	r4, #0
20000aa0:	d00a      	beq.n	20000ab8 <_Unwind_VRS_Pop+0x174>
20000aa2:	1af6      	subs	r6, r6, r3
20000aa4:	00e4      	lsls	r4, r4, #3
20000aa6:	1f32      	subs	r2, r6, #4
20000aa8:	191c      	adds	r4, r3, r4
20000aaa:	18ba      	adds	r2, r7, r2
20000aac:	0019      	movs	r1, r3
20000aae:	6809      	ldr	r1, [r1, #0]
20000ab0:	3304      	adds	r3, #4
20000ab2:	5099      	str	r1, [r3, r2]
20000ab4:	42a3      	cmp	r3, r4
20000ab6:	d1f9      	bne.n	20000aac <_Unwind_VRS_Pop+0x168>
20000ab8:	0038      	movs	r0, r7
20000aba:	63ab      	str	r3, [r5, #56]	; 0x38
20000abc:	f000 f8a2 	bl	20000c04 <__gnu_Unwind_Restore_WMMXD>
20000ac0:	2000      	movs	r0, #0
20000ac2:	e7bd      	b.n	20000a40 <_Unwind_VRS_Pop+0xfc>
20000ac4:	191b      	adds	r3, r3, r4
20000ac6:	2b10      	cmp	r3, #16
20000ac8:	d8b9      	bhi.n	20000a3e <_Unwind_VRS_Pop+0xfa>
20000aca:	4643      	mov	r3, r8
20000acc:	2b0f      	cmp	r3, #15
20000ace:	d8b6      	bhi.n	20000a3e <_Unwind_VRS_Pop+0xfa>
20000ad0:	682b      	ldr	r3, [r5, #0]
20000ad2:	421e      	tst	r6, r3
20000ad4:	d006      	beq.n	20000ae4 <_Unwind_VRS_Pop+0x1a0>
20000ad6:	2203      	movs	r2, #3
20000ad8:	0028      	movs	r0, r5
20000ada:	4393      	bics	r3, r2
20000adc:	602b      	str	r3, [r5, #0]
20000ade:	3048      	adds	r0, #72	; 0x48
20000ae0:	f000 f886 	bl	20000bf0 <__gnu_Unwind_Save_VFP>
20000ae4:	af20      	add	r7, sp, #128	; 0x80
20000ae6:	0038      	movs	r0, r7
20000ae8:	f000 f882 	bl	20000bf0 <__gnu_Unwind_Save_VFP>
20000aec:	2300      	movs	r3, #0
20000aee:	6baa      	ldr	r2, [r5, #56]	; 0x38
20000af0:	4699      	mov	r9, r3
20000af2:	2c00      	cmp	r4, #0
20000af4:	d000      	beq.n	20000af8 <_Unwind_VRS_Pop+0x1b4>
20000af6:	e74f      	b.n	20000998 <_Unwind_VRS_Pop+0x54>
20000af8:	3204      	adds	r2, #4
20000afa:	0038      	movs	r0, r7
20000afc:	63aa      	str	r2, [r5, #56]	; 0x38
20000afe:	f000 f875 	bl	20000bec <__gnu_Unwind_Restore_VFP>
20000b02:	2000      	movs	r0, #0
20000b04:	e79c      	b.n	20000a40 <_Unwind_VRS_Pop+0xfc>
20000b06:	2b10      	cmp	r3, #16
20000b08:	d945      	bls.n	20000b96 <_Unwind_VRS_Pop+0x252>
20000b0a:	2210      	movs	r2, #16
20000b0c:	4252      	negs	r2, r2
20000b0e:	4691      	mov	r9, r2
20000b10:	4499      	add	r9, r3
20000b12:	2201      	movs	r2, #1
20000b14:	682b      	ldr	r3, [r5, #0]
20000b16:	421a      	tst	r2, r3
20000b18:	d007      	beq.n	20000b2a <_Unwind_VRS_Pop+0x1e6>
20000b1a:	4393      	bics	r3, r2
20000b1c:	2202      	movs	r2, #2
20000b1e:	0028      	movs	r0, r5
20000b20:	4313      	orrs	r3, r2
20000b22:	602b      	str	r3, [r5, #0]
20000b24:	3048      	adds	r0, #72	; 0x48
20000b26:	f000 f867 	bl	20000bf8 <__gnu_Unwind_Save_VFP_D>
20000b2a:	464b      	mov	r3, r9
20000b2c:	2b00      	cmp	r3, #0
20000b2e:	d035      	beq.n	20000b9c <_Unwind_VRS_Pop+0x258>
20000b30:	2204      	movs	r2, #4
20000b32:	682b      	ldr	r3, [r5, #0]
20000b34:	421a      	tst	r2, r3
20000b36:	d127      	bne.n	20000b88 <_Unwind_VRS_Pop+0x244>
20000b38:	4643      	mov	r3, r8
20000b3a:	2b0f      	cmp	r3, #15
20000b3c:	d803      	bhi.n	20000b46 <_Unwind_VRS_Pop+0x202>
20000b3e:	af20      	add	r7, sp, #128	; 0x80
20000b40:	0038      	movs	r0, r7
20000b42:	f000 f859 	bl	20000bf8 <__gnu_Unwind_Save_VFP_D>
20000b46:	466f      	mov	r7, sp
20000b48:	0038      	movs	r0, r7
20000b4a:	f000 f859 	bl	20000c00 <__gnu_Unwind_Save_VFP_D_16_to_31>
20000b4e:	2410      	movs	r4, #16
20000b50:	4643      	mov	r3, r8
20000b52:	6baa      	ldr	r2, [r5, #56]	; 0x38
20000b54:	1ae4      	subs	r4, r4, r3
20000b56:	2c00      	cmp	r4, #0
20000b58:	dc00      	bgt.n	20000b5c <_Unwind_VRS_Pop+0x218>
20000b5a:	e72c      	b.n	200009b6 <_Unwind_VRS_Pop+0x72>
20000b5c:	af20      	add	r7, sp, #128	; 0x80
20000b5e:	e71b      	b.n	20000998 <_Unwind_VRS_Pop+0x54>
20000b60:	4393      	bics	r3, r2
20000b62:	6003      	str	r3, [r0, #0]
20000b64:	30d1      	adds	r0, #209	; 0xd1
20000b66:	30ff      	adds	r0, #255	; 0xff
20000b68:	f000 f852 	bl	20000c10 <__gnu_Unwind_Save_WMMXC>
20000b6c:	e74e      	b.n	20000a0c <_Unwind_VRS_Pop+0xc8>
20000b6e:	4393      	bics	r3, r2
20000b70:	6003      	str	r3, [r0, #0]
20000b72:	3051      	adds	r0, #81	; 0x51
20000b74:	30ff      	adds	r0, #255	; 0xff
20000b76:	f000 f847 	bl	20000c08 <__gnu_Unwind_Save_WMMXD>
20000b7a:	e78a      	b.n	20000a92 <_Unwind_VRS_Pop+0x14e>
20000b7c:	af20      	add	r7, sp, #128	; 0x80
20000b7e:	e7bb      	b.n	20000af8 <_Unwind_VRS_Pop+0x1b4>
20000b80:	a820      	add	r0, sp, #128	; 0x80
20000b82:	f000 f837 	bl	20000bf4 <__gnu_Unwind_Restore_VFP_D>
20000b86:	e72e      	b.n	200009e6 <_Unwind_VRS_Pop+0xa2>
20000b88:	0028      	movs	r0, r5
20000b8a:	4393      	bics	r3, r2
20000b8c:	602b      	str	r3, [r5, #0]
20000b8e:	30d0      	adds	r0, #208	; 0xd0
20000b90:	f000 f836 	bl	20000c00 <__gnu_Unwind_Save_VFP_D_16_to_31>
20000b94:	e7d0      	b.n	20000b38 <_Unwind_VRS_Pop+0x1f4>
20000b96:	2300      	movs	r3, #0
20000b98:	4699      	mov	r9, r3
20000b9a:	e7ba      	b.n	20000b12 <_Unwind_VRS_Pop+0x1ce>
20000b9c:	4643      	mov	r3, r8
20000b9e:	2b0f      	cmp	r3, #15
20000ba0:	d900      	bls.n	20000ba4 <_Unwind_VRS_Pop+0x260>
20000ba2:	e6f3      	b.n	2000098c <_Unwind_VRS_Pop+0x48>
20000ba4:	af20      	add	r7, sp, #128	; 0x80
20000ba6:	0038      	movs	r0, r7
20000ba8:	f000 f826 	bl	20000bf8 <__gnu_Unwind_Save_VFP_D>
20000bac:	6baa      	ldr	r2, [r5, #56]	; 0x38
20000bae:	2c00      	cmp	r4, #0
20000bb0:	d000      	beq.n	20000bb4 <_Unwind_VRS_Pop+0x270>
20000bb2:	e6ef      	b.n	20000994 <_Unwind_VRS_Pop+0x50>
20000bb4:	0038      	movs	r0, r7
20000bb6:	f000 f81d 	bl	20000bf4 <__gnu_Unwind_Restore_VFP_D>
20000bba:	2000      	movs	r0, #0
20000bbc:	e740      	b.n	20000a40 <_Unwind_VRS_Pop+0xfc>
20000bbe:	46c0      	nop			; (mov r8, r8)

20000bc0 <__restore_core_regs>:
20000bc0:	1c01      	adds	r1, r0, #0
20000bc2:	3134      	adds	r1, #52	; 0x34
20000bc4:	c938      	ldmia	r1!, {r3, r4, r5}
20000bc6:	3b04      	subs	r3, #4
20000bc8:	469c      	mov	ip, r3
20000bca:	601d      	str	r5, [r3, #0]
20000bcc:	46a6      	mov	lr, r4
20000bce:	1c01      	adds	r1, r0, #0
20000bd0:	3120      	adds	r1, #32
20000bd2:	c93c      	ldmia	r1!, {r2, r3, r4, r5}
20000bd4:	4690      	mov	r8, r2
20000bd6:	4699      	mov	r9, r3
20000bd8:	46a2      	mov	sl, r4
20000bda:	46ab      	mov	fp, r5
20000bdc:	1c01      	adds	r1, r0, #0
20000bde:	3108      	adds	r1, #8
20000be0:	c9fc      	ldmia	r1!, {r2, r3, r4, r5, r6, r7}
20000be2:	6841      	ldr	r1, [r0, #4]
20000be4:	6800      	ldr	r0, [r0, #0]
20000be6:	46e5      	mov	sp, ip
20000be8:	bd00      	pop	{pc}
20000bea:	46c0      	nop			; (mov r8, r8)

20000bec <__gnu_Unwind_Restore_VFP>:
20000bec:	4770      	bx	lr
20000bee:	46c0      	nop			; (mov r8, r8)

20000bf0 <__gnu_Unwind_Save_VFP>:
20000bf0:	4770      	bx	lr
20000bf2:	46c0      	nop			; (mov r8, r8)

20000bf4 <__gnu_Unwind_Restore_VFP_D>:
20000bf4:	4770      	bx	lr
20000bf6:	46c0      	nop			; (mov r8, r8)

20000bf8 <__gnu_Unwind_Save_VFP_D>:
20000bf8:	4770      	bx	lr
20000bfa:	46c0      	nop			; (mov r8, r8)

20000bfc <__gnu_Unwind_Restore_VFP_D_16_to_31>:
20000bfc:	4770      	bx	lr
20000bfe:	46c0      	nop			; (mov r8, r8)

20000c00 <__gnu_Unwind_Save_VFP_D_16_to_31>:
20000c00:	4770      	bx	lr
20000c02:	46c0      	nop			; (mov r8, r8)

20000c04 <__gnu_Unwind_Restore_WMMXD>:
20000c04:	4770      	bx	lr
20000c06:	46c0      	nop			; (mov r8, r8)

20000c08 <__gnu_Unwind_Save_WMMXD>:
20000c08:	4770      	bx	lr
20000c0a:	46c0      	nop			; (mov r8, r8)

20000c0c <__gnu_Unwind_Restore_WMMXC>:
20000c0c:	4770      	bx	lr
20000c0e:	46c0      	nop			; (mov r8, r8)

20000c10 <__gnu_Unwind_Save_WMMXC>:
20000c10:	4770      	bx	lr
20000c12:	46c0      	nop			; (mov r8, r8)

20000c14 <_Unwind_RaiseException>:
20000c14:	b401      	push	{r0}
20000c16:	a801      	add	r0, sp, #4
20000c18:	b501      	push	{r0, lr}
20000c1a:	b085      	sub	sp, #20
20000c1c:	b4ff      	push	{r0, r1, r2, r3, r4, r5, r6, r7}
20000c1e:	a808      	add	r0, sp, #32
20000c20:	4641      	mov	r1, r8
20000c22:	464a      	mov	r2, r9
20000c24:	4653      	mov	r3, sl
20000c26:	465c      	mov	r4, fp
20000c28:	4665      	mov	r5, ip
20000c2a:	c03e      	stmia	r0!, {r1, r2, r3, r4, r5}
20000c2c:	a801      	add	r0, sp, #4
20000c2e:	c83e      	ldmia	r0!, {r1, r2, r3, r4, r5}
20000c30:	980f      	ldr	r0, [sp, #60]	; 0x3c
20000c32:	9000      	str	r0, [sp, #0]
20000c34:	2300      	movs	r3, #0
20000c36:	b40c      	push	{r2, r3}
20000c38:	a901      	add	r1, sp, #4
20000c3a:	f7ff fc07 	bl	2000044c <__gnu_Unwind_RaiseException>
20000c3e:	9b10      	ldr	r3, [sp, #64]	; 0x40
20000c40:	b012      	add	sp, #72	; 0x48
20000c42:	4718      	bx	r3

20000c44 <_Unwind_Resume>:
20000c44:	b401      	push	{r0}
20000c46:	a801      	add	r0, sp, #4
20000c48:	b501      	push	{r0, lr}
20000c4a:	b085      	sub	sp, #20
20000c4c:	b4ff      	push	{r0, r1, r2, r3, r4, r5, r6, r7}
20000c4e:	a808      	add	r0, sp, #32
20000c50:	4641      	mov	r1, r8
20000c52:	464a      	mov	r2, r9
20000c54:	4653      	mov	r3, sl
20000c56:	465c      	mov	r4, fp
20000c58:	4665      	mov	r5, ip
20000c5a:	c03e      	stmia	r0!, {r1, r2, r3, r4, r5}
20000c5c:	a801      	add	r0, sp, #4
20000c5e:	c83e      	ldmia	r0!, {r1, r2, r3, r4, r5}
20000c60:	980f      	ldr	r0, [sp, #60]	; 0x3c
20000c62:	9000      	str	r0, [sp, #0]
20000c64:	2300      	movs	r3, #0
20000c66:	b40c      	push	{r2, r3}
20000c68:	a901      	add	r1, sp, #4
20000c6a:	f7ff fc23 	bl	200004b4 <__gnu_Unwind_Resume>
20000c6e:	9b10      	ldr	r3, [sp, #64]	; 0x40
20000c70:	b012      	add	sp, #72	; 0x48
20000c72:	4718      	bx	r3

20000c74 <_Unwind_Resume_or_Rethrow>:
20000c74:	b401      	push	{r0}
20000c76:	a801      	add	r0, sp, #4
20000c78:	b501      	push	{r0, lr}
20000c7a:	b085      	sub	sp, #20
20000c7c:	b4ff      	push	{r0, r1, r2, r3, r4, r5, r6, r7}
20000c7e:	a808      	add	r0, sp, #32
20000c80:	4641      	mov	r1, r8
20000c82:	464a      	mov	r2, r9
20000c84:	4653      	mov	r3, sl
20000c86:	465c      	mov	r4, fp
20000c88:	4665      	mov	r5, ip
20000c8a:	c03e      	stmia	r0!, {r1, r2, r3, r4, r5}
20000c8c:	a801      	add	r0, sp, #4
20000c8e:	c83e      	ldmia	r0!, {r1, r2, r3, r4, r5}
20000c90:	980f      	ldr	r0, [sp, #60]	; 0x3c
20000c92:	9000      	str	r0, [sp, #0]
20000c94:	2300      	movs	r3, #0
20000c96:	b40c      	push	{r2, r3}
20000c98:	a901      	add	r1, sp, #4
20000c9a:	f7ff fc2f 	bl	200004fc <__gnu_Unwind_Resume_or_Rethrow>
20000c9e:	9b10      	ldr	r3, [sp, #64]	; 0x40
20000ca0:	b012      	add	sp, #72	; 0x48
20000ca2:	4718      	bx	r3

20000ca4 <_Unwind_ForcedUnwind>:
20000ca4:	b401      	push	{r0}
20000ca6:	a801      	add	r0, sp, #4
20000ca8:	b501      	push	{r0, lr}
20000caa:	b085      	sub	sp, #20
20000cac:	b4ff      	push	{r0, r1, r2, r3, r4, r5, r6, r7}
20000cae:	a808      	add	r0, sp, #32
20000cb0:	4641      	mov	r1, r8
20000cb2:	464a      	mov	r2, r9
20000cb4:	4653      	mov	r3, sl
20000cb6:	465c      	mov	r4, fp
20000cb8:	4665      	mov	r5, ip
20000cba:	c03e      	stmia	r0!, {r1, r2, r3, r4, r5}
20000cbc:	a801      	add	r0, sp, #4
20000cbe:	c83e      	ldmia	r0!, {r1, r2, r3, r4, r5}
20000cc0:	980f      	ldr	r0, [sp, #60]	; 0x3c
20000cc2:	9000      	str	r0, [sp, #0]
20000cc4:	2300      	movs	r3, #0
20000cc6:	b40c      	push	{r2, r3}
20000cc8:	ab01      	add	r3, sp, #4
20000cca:	f7ff fbe9 	bl	200004a0 <__gnu_Unwind_ForcedUnwind>
20000cce:	9b10      	ldr	r3, [sp, #64]	; 0x40
20000cd0:	b012      	add	sp, #72	; 0x48
20000cd2:	4718      	bx	r3

20000cd4 <_Unwind_Backtrace>:
20000cd4:	b401      	push	{r0}
20000cd6:	a801      	add	r0, sp, #4
20000cd8:	b501      	push	{r0, lr}
20000cda:	b085      	sub	sp, #20
20000cdc:	b4ff      	push	{r0, r1, r2, r3, r4, r5, r6, r7}
20000cde:	a808      	add	r0, sp, #32
20000ce0:	4641      	mov	r1, r8
20000ce2:	464a      	mov	r2, r9
20000ce4:	4653      	mov	r3, sl
20000ce6:	465c      	mov	r4, fp
20000ce8:	4665      	mov	r5, ip
20000cea:	c03e      	stmia	r0!, {r1, r2, r3, r4, r5}
20000cec:	a801      	add	r0, sp, #4
20000cee:	c83e      	ldmia	r0!, {r1, r2, r3, r4, r5}
20000cf0:	980f      	ldr	r0, [sp, #60]	; 0x3c
20000cf2:	9000      	str	r0, [sp, #0]
20000cf4:	2300      	movs	r3, #0
20000cf6:	b40c      	push	{r2, r3}
20000cf8:	aa01      	add	r2, sp, #4
20000cfa:	f7ff fc63 	bl	200005c4 <__gnu_Unwind_Backtrace>
20000cfe:	9b10      	ldr	r3, [sp, #64]	; 0x40
20000d00:	b012      	add	sp, #72	; 0x48
20000d02:	4718      	bx	r3

20000d04 <next_unwind_byte>:
20000d04:	7a02      	ldrb	r2, [r0, #8]
20000d06:	0003      	movs	r3, r0
20000d08:	2a00      	cmp	r2, #0
20000d0a:	d10b      	bne.n	20000d24 <next_unwind_byte+0x20>
20000d0c:	7a42      	ldrb	r2, [r0, #9]
20000d0e:	2a00      	cmp	r2, #0
20000d10:	d00f      	beq.n	20000d32 <next_unwind_byte+0x2e>
20000d12:	3a01      	subs	r2, #1
20000d14:	7242      	strb	r2, [r0, #9]
20000d16:	6842      	ldr	r2, [r0, #4]
20000d18:	1d11      	adds	r1, r2, #4
20000d1a:	6041      	str	r1, [r0, #4]
20000d1c:	2103      	movs	r1, #3
20000d1e:	6812      	ldr	r2, [r2, #0]
20000d20:	7201      	strb	r1, [r0, #8]
20000d22:	e002      	b.n	20000d2a <next_unwind_byte+0x26>
20000d24:	3a01      	subs	r2, #1
20000d26:	7202      	strb	r2, [r0, #8]
20000d28:	6802      	ldr	r2, [r0, #0]
20000d2a:	0e10      	lsrs	r0, r2, #24
20000d2c:	0212      	lsls	r2, r2, #8
20000d2e:	601a      	str	r2, [r3, #0]
20000d30:	4770      	bx	lr
20000d32:	20b0      	movs	r0, #176	; 0xb0
20000d34:	e7fc      	b.n	20000d30 <next_unwind_byte+0x2c>
20000d36:	46c0      	nop			; (mov r8, r8)

20000d38 <_Unwind_GetGR.constprop.0>:
20000d38:	b500      	push	{lr}
20000d3a:	b085      	sub	sp, #20
20000d3c:	ab03      	add	r3, sp, #12
20000d3e:	9300      	str	r3, [sp, #0]
20000d40:	220c      	movs	r2, #12
20000d42:	2300      	movs	r3, #0
20000d44:	2100      	movs	r1, #0
20000d46:	f7ff fbf1 	bl	2000052c <_Unwind_VRS_Get>
20000d4a:	9803      	ldr	r0, [sp, #12]
20000d4c:	b005      	add	sp, #20
20000d4e:	bd00      	pop	{pc}

20000d50 <unwind_UCB_from_context>:
20000d50:	b510      	push	{r4, lr}
20000d52:	f7ff fff1 	bl	20000d38 <_Unwind_GetGR.constprop.0>
20000d56:	bd10      	pop	{r4, pc}

20000d58 <__gnu_unwind_execute>:
20000d58:	b5f0      	push	{r4, r5, r6, r7, lr}
20000d5a:	464e      	mov	r6, r9
20000d5c:	4645      	mov	r5, r8
20000d5e:	4657      	mov	r7, sl
20000d60:	46de      	mov	lr, fp
20000d62:	2300      	movs	r3, #0
20000d64:	b5e0      	push	{r5, r6, r7, lr}
20000d66:	b087      	sub	sp, #28
20000d68:	9303      	str	r3, [sp, #12]
20000d6a:	330f      	adds	r3, #15
20000d6c:	4698      	mov	r8, r3
20000d6e:	3b08      	subs	r3, #8
20000d70:	4699      	mov	r9, r3
20000d72:	2380      	movs	r3, #128	; 0x80
20000d74:	031b      	lsls	r3, r3, #12
20000d76:	0005      	movs	r5, r0
20000d78:	000e      	movs	r6, r1
20000d7a:	469a      	mov	sl, r3
20000d7c:	0030      	movs	r0, r6
20000d7e:	f7ff ffc1 	bl	20000d04 <next_unwind_byte>
20000d82:	0004      	movs	r4, r0
20000d84:	28b0      	cmp	r0, #176	; 0xb0
20000d86:	d100      	bne.n	20000d8a <__gnu_unwind_execute+0x32>
20000d88:	e0c1      	b.n	20000f0e <__gnu_unwind_execute+0x1b6>
20000d8a:	0603      	lsls	r3, r0, #24
20000d8c:	d529      	bpl.n	20000de2 <__gnu_unwind_execute+0x8a>
20000d8e:	0003      	movs	r3, r0
20000d90:	4642      	mov	r2, r8
20000d92:	4393      	bics	r3, r2
20000d94:	b2db      	uxtb	r3, r3
20000d96:	2b80      	cmp	r3, #128	; 0x80
20000d98:	d053      	beq.n	20000e42 <__gnu_unwind_execute+0xea>
20000d9a:	2b90      	cmp	r3, #144	; 0x90
20000d9c:	d03d      	beq.n	20000e1a <__gnu_unwind_execute+0xc2>
20000d9e:	2ba0      	cmp	r3, #160	; 0xa0
20000da0:	d06b      	beq.n	20000e7a <__gnu_unwind_execute+0x122>
20000da2:	2bb0      	cmp	r3, #176	; 0xb0
20000da4:	d100      	bne.n	20000da8 <__gnu_unwind_execute+0x50>
20000da6:	e07e      	b.n	20000ea6 <__gnu_unwind_execute+0x14e>
20000da8:	2bc0      	cmp	r3, #192	; 0xc0
20000daa:	d100      	bne.n	20000dae <__gnu_unwind_execute+0x56>
20000dac:	e095      	b.n	20000eda <__gnu_unwind_execute+0x182>
20000dae:	0003      	movs	r3, r0
20000db0:	464a      	mov	r2, r9
20000db2:	4393      	bics	r3, r2
20000db4:	b2db      	uxtb	r3, r3
20000db6:	2bd0      	cmp	r3, #208	; 0xd0
20000db8:	d10a      	bne.n	20000dd0 <__gnu_unwind_execute+0x78>
20000dba:	4653      	mov	r3, sl
20000dbc:	4002      	ands	r2, r0
20000dbe:	3201      	adds	r2, #1
20000dc0:	431a      	orrs	r2, r3
20000dc2:	2305      	movs	r3, #5
20000dc4:	2101      	movs	r1, #1
20000dc6:	0028      	movs	r0, r5
20000dc8:	f7ff fdbc 	bl	20000944 <_Unwind_VRS_Pop>
20000dcc:	2800      	cmp	r0, #0
20000dce:	d0d5      	beq.n	20000d7c <__gnu_unwind_execute+0x24>
20000dd0:	2409      	movs	r4, #9
20000dd2:	0020      	movs	r0, r4
20000dd4:	b007      	add	sp, #28
20000dd6:	bc3c      	pop	{r2, r3, r4, r5}
20000dd8:	4690      	mov	r8, r2
20000dda:	4699      	mov	r9, r3
20000ddc:	46a2      	mov	sl, r4
20000dde:	46ab      	mov	fp, r5
20000de0:	bdf0      	pop	{r4, r5, r6, r7, pc}
20000de2:	23ff      	movs	r3, #255	; 0xff
20000de4:	0082      	lsls	r2, r0, #2
20000de6:	4013      	ands	r3, r2
20000de8:	1d1f      	adds	r7, r3, #4
20000dea:	ab05      	add	r3, sp, #20
20000dec:	469b      	mov	fp, r3
20000dee:	9300      	str	r3, [sp, #0]
20000df0:	220d      	movs	r2, #13
20000df2:	2300      	movs	r3, #0
20000df4:	2100      	movs	r1, #0
20000df6:	0028      	movs	r0, r5
20000df8:	f7ff fb98 	bl	2000052c <_Unwind_VRS_Get>
20000dfc:	0663      	lsls	r3, r4, #25
20000dfe:	d439      	bmi.n	20000e74 <__gnu_unwind_execute+0x11c>
20000e00:	9b05      	ldr	r3, [sp, #20]
20000e02:	469c      	mov	ip, r3
20000e04:	4467      	add	r7, ip
20000e06:	465b      	mov	r3, fp
20000e08:	9705      	str	r7, [sp, #20]
20000e0a:	9300      	str	r3, [sp, #0]
20000e0c:	2300      	movs	r3, #0
20000e0e:	220d      	movs	r2, #13
20000e10:	2100      	movs	r1, #0
20000e12:	0028      	movs	r0, r5
20000e14:	f7ff fbb0 	bl	20000578 <_Unwind_VRS_Set>
20000e18:	e7b0      	b.n	20000d7c <__gnu_unwind_execute+0x24>
20000e1a:	3b83      	subs	r3, #131	; 0x83
20000e1c:	4003      	ands	r3, r0
20000e1e:	2b0d      	cmp	r3, #13
20000e20:	d0d6      	beq.n	20000dd0 <__gnu_unwind_execute+0x78>
20000e22:	af05      	add	r7, sp, #20
20000e24:	4002      	ands	r2, r0
20000e26:	2300      	movs	r3, #0
20000e28:	2100      	movs	r1, #0
20000e2a:	0028      	movs	r0, r5
20000e2c:	9700      	str	r7, [sp, #0]
20000e2e:	f7ff fb7d 	bl	2000052c <_Unwind_VRS_Get>
20000e32:	2300      	movs	r3, #0
20000e34:	220d      	movs	r2, #13
20000e36:	2100      	movs	r1, #0
20000e38:	0028      	movs	r0, r5
20000e3a:	9700      	str	r7, [sp, #0]
20000e3c:	f7ff fb9c 	bl	20000578 <_Unwind_VRS_Set>
20000e40:	e79c      	b.n	20000d7c <__gnu_unwind_execute+0x24>
20000e42:	0204      	lsls	r4, r0, #8
20000e44:	0030      	movs	r0, r6
20000e46:	f7ff ff5d 	bl	20000d04 <next_unwind_byte>
20000e4a:	2780      	movs	r7, #128	; 0x80
20000e4c:	4320      	orrs	r0, r4
20000e4e:	023f      	lsls	r7, r7, #8
20000e50:	42b8      	cmp	r0, r7
20000e52:	d0bd      	beq.n	20000dd0 <__gnu_unwind_execute+0x78>
20000e54:	0104      	lsls	r4, r0, #4
20000e56:	0500      	lsls	r0, r0, #20
20000e58:	0c02      	lsrs	r2, r0, #16
20000e5a:	2300      	movs	r3, #0
20000e5c:	2100      	movs	r1, #0
20000e5e:	0028      	movs	r0, r5
20000e60:	f7ff fd70 	bl	20000944 <_Unwind_VRS_Pop>
20000e64:	2800      	cmp	r0, #0
20000e66:	d1b3      	bne.n	20000dd0 <__gnu_unwind_execute+0x78>
20000e68:	423c      	tst	r4, r7
20000e6a:	d100      	bne.n	20000e6e <__gnu_unwind_execute+0x116>
20000e6c:	e786      	b.n	20000d7c <__gnu_unwind_execute+0x24>
20000e6e:	2301      	movs	r3, #1
20000e70:	9303      	str	r3, [sp, #12]
20000e72:	e783      	b.n	20000d7c <__gnu_unwind_execute+0x24>
20000e74:	9b05      	ldr	r3, [sp, #20]
20000e76:	1bdf      	subs	r7, r3, r7
20000e78:	e7c5      	b.n	20000e06 <__gnu_unwind_execute+0xae>
20000e7a:	23ff      	movs	r3, #255	; 0xff
20000e7c:	464a      	mov	r2, r9
20000e7e:	011b      	lsls	r3, r3, #4
20000e80:	0019      	movs	r1, r3
20000e82:	4382      	bics	r2, r0
20000e84:	4111      	asrs	r1, r2
20000e86:	000a      	movs	r2, r1
20000e88:	401a      	ands	r2, r3
20000e8a:	0703      	lsls	r3, r0, #28
20000e8c:	d502      	bpl.n	20000e94 <__gnu_unwind_execute+0x13c>
20000e8e:	2380      	movs	r3, #128	; 0x80
20000e90:	01db      	lsls	r3, r3, #7
20000e92:	431a      	orrs	r2, r3
20000e94:	2300      	movs	r3, #0
20000e96:	2100      	movs	r1, #0
20000e98:	0028      	movs	r0, r5
20000e9a:	f7ff fd53 	bl	20000944 <_Unwind_VRS_Pop>
20000e9e:	2800      	cmp	r0, #0
20000ea0:	d100      	bne.n	20000ea4 <__gnu_unwind_execute+0x14c>
20000ea2:	e76b      	b.n	20000d7c <__gnu_unwind_execute+0x24>
20000ea4:	e794      	b.n	20000dd0 <__gnu_unwind_execute+0x78>
20000ea6:	28b1      	cmp	r0, #177	; 0xb1
20000ea8:	d045      	beq.n	20000f36 <__gnu_unwind_execute+0x1de>
20000eaa:	28b2      	cmp	r0, #178	; 0xb2
20000eac:	d100      	bne.n	20000eb0 <__gnu_unwind_execute+0x158>
20000eae:	e09f      	b.n	20000ff0 <__gnu_unwind_execute+0x298>
20000eb0:	28b3      	cmp	r0, #179	; 0xb3
20000eb2:	d055      	beq.n	20000f60 <__gnu_unwind_execute+0x208>
20000eb4:	23fc      	movs	r3, #252	; 0xfc
20000eb6:	4003      	ands	r3, r0
20000eb8:	2bb4      	cmp	r3, #180	; 0xb4
20000eba:	d100      	bne.n	20000ebe <__gnu_unwind_execute+0x166>
20000ebc:	e788      	b.n	20000dd0 <__gnu_unwind_execute+0x78>
20000ebe:	464a      	mov	r2, r9
20000ec0:	4653      	mov	r3, sl
20000ec2:	4002      	ands	r2, r0
20000ec4:	3201      	adds	r2, #1
20000ec6:	431a      	orrs	r2, r3
20000ec8:	2101      	movs	r1, #1
20000eca:	2301      	movs	r3, #1
20000ecc:	0028      	movs	r0, r5
20000ece:	f7ff fd39 	bl	20000944 <_Unwind_VRS_Pop>
20000ed2:	2800      	cmp	r0, #0
20000ed4:	d100      	bne.n	20000ed8 <__gnu_unwind_execute+0x180>
20000ed6:	e751      	b.n	20000d7c <__gnu_unwind_execute+0x24>
20000ed8:	e77a      	b.n	20000dd0 <__gnu_unwind_execute+0x78>
20000eda:	28c6      	cmp	r0, #198	; 0xc6
20000edc:	d04b      	beq.n	20000f76 <__gnu_unwind_execute+0x21e>
20000ede:	28c7      	cmp	r0, #199	; 0xc7
20000ee0:	d05d      	beq.n	20000f9e <__gnu_unwind_execute+0x246>
20000ee2:	0003      	movs	r3, r0
20000ee4:	464a      	mov	r2, r9
20000ee6:	4393      	bics	r3, r2
20000ee8:	b2db      	uxtb	r3, r3
20000eea:	2bc0      	cmp	r3, #192	; 0xc0
20000eec:	d06c      	beq.n	20000fc8 <__gnu_unwind_execute+0x270>
20000eee:	28c8      	cmp	r0, #200	; 0xc8
20000ef0:	d071      	beq.n	20000fd6 <__gnu_unwind_execute+0x27e>
20000ef2:	28c9      	cmp	r0, #201	; 0xc9
20000ef4:	d000      	beq.n	20000ef8 <__gnu_unwind_execute+0x1a0>
20000ef6:	e76b      	b.n	20000dd0 <__gnu_unwind_execute+0x78>
20000ef8:	0030      	movs	r0, r6
20000efa:	f7ff ff03 	bl	20000d04 <next_unwind_byte>
20000efe:	23f0      	movs	r3, #240	; 0xf0
20000f00:	0302      	lsls	r2, r0, #12
20000f02:	031b      	lsls	r3, r3, #12
20000f04:	4013      	ands	r3, r2
20000f06:	4642      	mov	r2, r8
20000f08:	4002      	ands	r2, r0
20000f0a:	3201      	adds	r2, #1
20000f0c:	e758      	b.n	20000dc0 <__gnu_unwind_execute+0x68>
20000f0e:	9b03      	ldr	r3, [sp, #12]
20000f10:	2400      	movs	r4, #0
20000f12:	2b00      	cmp	r3, #0
20000f14:	d000      	beq.n	20000f18 <__gnu_unwind_execute+0x1c0>
20000f16:	e75c      	b.n	20000dd2 <__gnu_unwind_execute+0x7a>
20000f18:	ae05      	add	r6, sp, #20
20000f1a:	220e      	movs	r2, #14
20000f1c:	2100      	movs	r1, #0
20000f1e:	0028      	movs	r0, r5
20000f20:	9600      	str	r6, [sp, #0]
20000f22:	f7ff fb03 	bl	2000052c <_Unwind_VRS_Get>
20000f26:	2300      	movs	r3, #0
20000f28:	220f      	movs	r2, #15
20000f2a:	2100      	movs	r1, #0
20000f2c:	0028      	movs	r0, r5
20000f2e:	9600      	str	r6, [sp, #0]
20000f30:	f7ff fb22 	bl	20000578 <_Unwind_VRS_Set>
20000f34:	e74d      	b.n	20000dd2 <__gnu_unwind_execute+0x7a>
20000f36:	0030      	movs	r0, r6
20000f38:	f7ff fee4 	bl	20000d04 <next_unwind_byte>
20000f3c:	1e02      	subs	r2, r0, #0
20000f3e:	d100      	bne.n	20000f42 <__gnu_unwind_execute+0x1ea>
20000f40:	e746      	b.n	20000dd0 <__gnu_unwind_execute+0x78>
20000f42:	0003      	movs	r3, r0
20000f44:	4641      	mov	r1, r8
20000f46:	438b      	bics	r3, r1
20000f48:	b2db      	uxtb	r3, r3
20000f4a:	2b00      	cmp	r3, #0
20000f4c:	d000      	beq.n	20000f50 <__gnu_unwind_execute+0x1f8>
20000f4e:	e73f      	b.n	20000dd0 <__gnu_unwind_execute+0x78>
20000f50:	2100      	movs	r1, #0
20000f52:	0028      	movs	r0, r5
20000f54:	f7ff fcf6 	bl	20000944 <_Unwind_VRS_Pop>
20000f58:	2800      	cmp	r0, #0
20000f5a:	d100      	bne.n	20000f5e <__gnu_unwind_execute+0x206>
20000f5c:	e70e      	b.n	20000d7c <__gnu_unwind_execute+0x24>
20000f5e:	e737      	b.n	20000dd0 <__gnu_unwind_execute+0x78>
20000f60:	0030      	movs	r0, r6
20000f62:	f7ff fecf 	bl	20000d04 <next_unwind_byte>
20000f66:	23f0      	movs	r3, #240	; 0xf0
20000f68:	0302      	lsls	r2, r0, #12
20000f6a:	031b      	lsls	r3, r3, #12
20000f6c:	4013      	ands	r3, r2
20000f6e:	4642      	mov	r2, r8
20000f70:	4002      	ands	r2, r0
20000f72:	3201      	adds	r2, #1
20000f74:	e7a7      	b.n	20000ec6 <__gnu_unwind_execute+0x16e>
20000f76:	0030      	movs	r0, r6
20000f78:	f7ff fec4 	bl	20000d04 <next_unwind_byte>
20000f7c:	23f0      	movs	r3, #240	; 0xf0
20000f7e:	0302      	lsls	r2, r0, #12
20000f80:	031b      	lsls	r3, r3, #12
20000f82:	4013      	ands	r3, r2
20000f84:	4642      	mov	r2, r8
20000f86:	4002      	ands	r2, r0
20000f88:	3201      	adds	r2, #1
20000f8a:	431a      	orrs	r2, r3
20000f8c:	2303      	movs	r3, #3
20000f8e:	2103      	movs	r1, #3
20000f90:	0028      	movs	r0, r5
20000f92:	f7ff fcd7 	bl	20000944 <_Unwind_VRS_Pop>
20000f96:	2800      	cmp	r0, #0
20000f98:	d100      	bne.n	20000f9c <__gnu_unwind_execute+0x244>
20000f9a:	e6ef      	b.n	20000d7c <__gnu_unwind_execute+0x24>
20000f9c:	e718      	b.n	20000dd0 <__gnu_unwind_execute+0x78>
20000f9e:	0030      	movs	r0, r6
20000fa0:	f7ff feb0 	bl	20000d04 <next_unwind_byte>
20000fa4:	1e02      	subs	r2, r0, #0
20000fa6:	d100      	bne.n	20000faa <__gnu_unwind_execute+0x252>
20000fa8:	e712      	b.n	20000dd0 <__gnu_unwind_execute+0x78>
20000faa:	0003      	movs	r3, r0
20000fac:	4641      	mov	r1, r8
20000fae:	438b      	bics	r3, r1
20000fb0:	b2db      	uxtb	r3, r3
20000fb2:	2b00      	cmp	r3, #0
20000fb4:	d000      	beq.n	20000fb8 <__gnu_unwind_execute+0x260>
20000fb6:	e70b      	b.n	20000dd0 <__gnu_unwind_execute+0x78>
20000fb8:	2104      	movs	r1, #4
20000fba:	0028      	movs	r0, r5
20000fbc:	f7ff fcc2 	bl	20000944 <_Unwind_VRS_Pop>
20000fc0:	2800      	cmp	r0, #0
20000fc2:	d100      	bne.n	20000fc6 <__gnu_unwind_execute+0x26e>
20000fc4:	e6da      	b.n	20000d7c <__gnu_unwind_execute+0x24>
20000fc6:	e703      	b.n	20000dd0 <__gnu_unwind_execute+0x78>
20000fc8:	4643      	mov	r3, r8
20000fca:	22a0      	movs	r2, #160	; 0xa0
20000fcc:	401c      	ands	r4, r3
20000fce:	3401      	adds	r4, #1
20000fd0:	0312      	lsls	r2, r2, #12
20000fd2:	4322      	orrs	r2, r4
20000fd4:	e7da      	b.n	20000f8c <__gnu_unwind_execute+0x234>
20000fd6:	0030      	movs	r0, r6
20000fd8:	f7ff fe94 	bl	20000d04 <next_unwind_byte>
20000fdc:	4643      	mov	r3, r8
20000fde:	0002      	movs	r2, r0
20000fe0:	439a      	bics	r2, r3
20000fe2:	b2d2      	uxtb	r2, r2
20000fe4:	3210      	adds	r2, #16
20000fe6:	4018      	ands	r0, r3
20000fe8:	0312      	lsls	r2, r2, #12
20000fea:	3001      	adds	r0, #1
20000fec:	4302      	orrs	r2, r0
20000fee:	e6e8      	b.n	20000dc2 <__gnu_unwind_execute+0x6a>
20000ff0:	ab05      	add	r3, sp, #20
20000ff2:	9300      	str	r3, [sp, #0]
20000ff4:	469b      	mov	fp, r3
20000ff6:	220d      	movs	r2, #13
20000ff8:	2300      	movs	r3, #0
20000ffa:	2100      	movs	r1, #0
20000ffc:	0028      	movs	r0, r5
20000ffe:	f7ff fa95 	bl	2000052c <_Unwind_VRS_Get>
20001002:	0030      	movs	r0, r6
20001004:	f7ff fe7e 	bl	20000d04 <next_unwind_byte>
20001008:	0603      	lsls	r3, r0, #24
2000100a:	d51a      	bpl.n	20001042 <__gnu_unwind_execute+0x2ea>
2000100c:	277f      	movs	r7, #127	; 0x7f
2000100e:	3cb0      	subs	r4, #176	; 0xb0
20001010:	9b05      	ldr	r3, [sp, #20]
20001012:	4038      	ands	r0, r7
20001014:	40a0      	lsls	r0, r4
20001016:	469c      	mov	ip, r3
20001018:	4460      	add	r0, ip
2000101a:	9005      	str	r0, [sp, #20]
2000101c:	0030      	movs	r0, r6
2000101e:	3407      	adds	r4, #7
20001020:	f7ff fe70 	bl	20000d04 <next_unwind_byte>
20001024:	0603      	lsls	r3, r0, #24
20001026:	d4f3      	bmi.n	20001010 <__gnu_unwind_execute+0x2b8>
20001028:	2181      	movs	r1, #129	; 0x81
2000102a:	237f      	movs	r3, #127	; 0x7f
2000102c:	0089      	lsls	r1, r1, #2
2000102e:	468c      	mov	ip, r1
20001030:	4003      	ands	r3, r0
20001032:	40a3      	lsls	r3, r4
20001034:	9a05      	ldr	r2, [sp, #20]
20001036:	4462      	add	r2, ip
20001038:	189b      	adds	r3, r3, r2
2000103a:	9305      	str	r3, [sp, #20]
2000103c:	465b      	mov	r3, fp
2000103e:	9300      	str	r3, [sp, #0]
20001040:	e6e4      	b.n	20000e0c <__gnu_unwind_execute+0xb4>
20001042:	2402      	movs	r4, #2
20001044:	e7f0      	b.n	20001028 <__gnu_unwind_execute+0x2d0>
20001046:	46c0      	nop			; (mov r8, r8)

20001048 <__gnu_unwind_frame>:
20001048:	0003      	movs	r3, r0
2000104a:	b500      	push	{lr}
2000104c:	6cdb      	ldr	r3, [r3, #76]	; 0x4c
2000104e:	b085      	sub	sp, #20
20001050:	685a      	ldr	r2, [r3, #4]
20001052:	0008      	movs	r0, r1
20001054:	0212      	lsls	r2, r2, #8
20001056:	9201      	str	r2, [sp, #4]
20001058:	001a      	movs	r2, r3
2000105a:	3208      	adds	r2, #8
2000105c:	4669      	mov	r1, sp
2000105e:	9202      	str	r2, [sp, #8]
20001060:	2203      	movs	r2, #3
20001062:	730a      	strb	r2, [r1, #12]
20001064:	79db      	ldrb	r3, [r3, #7]
20001066:	734b      	strb	r3, [r1, #13]
20001068:	a901      	add	r1, sp, #4
2000106a:	f7ff fe75 	bl	20000d58 <__gnu_unwind_execute>
2000106e:	b005      	add	sp, #20
20001070:	bd00      	pop	{pc}
20001072:	46c0      	nop			; (mov r8, r8)

20001074 <_Unwind_GetRegionStart>:
20001074:	b510      	push	{r4, lr}
20001076:	f7ff fe6b 	bl	20000d50 <unwind_UCB_from_context>
2000107a:	6c80      	ldr	r0, [r0, #72]	; 0x48
2000107c:	bd10      	pop	{r4, pc}
2000107e:	46c0      	nop			; (mov r8, r8)

20001080 <_Unwind_GetLanguageSpecificData>:
20001080:	b510      	push	{r4, lr}
20001082:	f7ff fe65 	bl	20000d50 <unwind_UCB_from_context>
20001086:	6cc3      	ldr	r3, [r0, #76]	; 0x4c
20001088:	79d8      	ldrb	r0, [r3, #7]
2000108a:	3002      	adds	r0, #2
2000108c:	0080      	lsls	r0, r0, #2
2000108e:	1818      	adds	r0, r3, r0
20001090:	bd10      	pop	{r4, pc}
20001092:	46c0      	nop			; (mov r8, r8)

20001094 <_Unwind_GetDataRelBase>:
20001094:	b510      	push	{r4, lr}
20001096:	f000 f803 	bl	200010a0 <__abort_veneer>

2000109a <_Unwind_GetTextRelBase>:
2000109a:	b510      	push	{r4, lr}
2000109c:	f7ff fffa 	bl	20001094 <_Unwind_GetDataRelBase>

200010a0 <__abort_veneer>:
200010a0:	b401      	push	{r0}
200010a2:	4802      	ldr	r0, [pc, #8]	; (200010ac <__abort_veneer+0xc>)
200010a4:	4684      	mov	ip, r0
200010a6:	bc01      	pop	{r0}
200010a8:	4760      	bx	ip
200010aa:	bf00      	nop
200010ac:	100035c1 	.word	0x100035c1

200010b0 <____wrap_memcpy_veneer>:
200010b0:	b401      	push	{r0}
200010b2:	4802      	ldr	r0, [pc, #8]	; (200010bc <____wrap_memcpy_veneer+0xc>)
200010b4:	4684      	mov	ip, r0
200010b6:	bc01      	pop	{r0}
200010b8:	4760      	bx	ip
200010ba:	bf00      	nop
200010bc:	10001cad 	.word	0x10001cad

200010c0 <____cxa_begin_cleanup_veneer>:
200010c0:	b401      	push	{r0}
200010c2:	4802      	ldr	r0, [pc, #8]	; (200010cc <____cxa_begin_cleanup_veneer+0xc>)
200010c4:	4684      	mov	ip, r0
200010c6:	bc01      	pop	{r0}
200010c8:	4760      	bx	ip
200010ca:	bf00      	nop
200010cc:	100025c1 	.word	0x100025c1

200010d0 <____cxa_type_match_veneer>:
200010d0:	b401      	push	{r0}
200010d2:	4802      	ldr	r0, [pc, #8]	; (200010dc <____cxa_type_match_veneer+0xc>)
200010d4:	4684      	mov	ip, r0
200010d6:	bc01      	pop	{r0}
200010d8:	4760      	bx	ip
200010da:	bf00      	nop
200010dc:	100024f1 	.word	0x100024f1

200010e0 <striped_spin_lock_num>:
200010e0:	00000010                                ....

200010e4 <default_alarm_pool>:
200010e4:	200010fc 00000000 200019e8 20001b9c     ... ....... ... 
	...

200010fc <default_alarm_pool_heap>:
200010fc:	20001bac 00000000 00000000 00000010     ... ............

2000110c <irq_handler_chain_slots>:
2000110c:	00000000 	.word	0x00000000
20001110:	00010000 	.word	0x00010000
	...
2000111c:	00020000 	.word	0x00020000
	...
20001128:	00030000 	.word	0x00030000
	...
20001134:	00ff0000 	.word	0x00ff0000
20001138:	00000000 	.word	0x00000000

2000113c <irq_handler_chain_first_slot>:
2000113c:	b500      	push	{lr}
2000113e:	6848      	ldr	r0, [r1, #4]
20001140:	3101      	adds	r1, #1
20001142:	468e      	mov	lr, r1
20001144:	4700      	bx	r0

20001146 <irq_handler_chain_remove_tail>:
20001146:	4670      	mov	r0, lr
20001148:	3809      	subs	r0, #9
2000114a:	4901      	ldr	r1, [pc, #4]	; (20001150 <irq_handler_chain_remove_tail+0xa>)
2000114c:	4788      	blx	r1
2000114e:	bd00      	pop	{pc}
20001150:	10001805 	.word	0x10001805
	...

20001160 <aeabi_bits_funcs>:
20001160:	00003350 	.word	0x00003350
20001164:	0000334c 	.word	0x0000334c
20001168:	00003354 	.word	0x00003354
2000116c:	00003352 	.word	0x00003352

20001170 <aeabi_bits_funcs_end>:
20001170:	0000534d 	.word	0x0000534d
20001174:	0000434d 	.word	0x0000434d
20001178:	00003453 	.word	0x00003453
2000117c:	00003443 	.word	0x00003443

20001180 <_ZN10__cxxabiv120__unexpected_handlerE>:
20001180:	10002d81                                .-..

20001184 <_ZN10__cxxabiv119__terminate_handlerE>:
20001184:	100035c1                                .5..

20001188 <_impure_ptr>:
20001188:	20001190 00000000                       ... ....

20001190 <impure_data>:
20001190:	00000000 2000147c 200014e4 2000154c     ....|.. ... L.. 
	...
20001238:	00000001 00000000 abcd330e e66d1234     .........3..4.m.
20001248:	0005deec 0000000b 00000000 00000000     ................
	...

200015b8 <__malloc_sbrk_base>:
200015b8:	ffffffff                                ....

200015bc <__malloc_trim_threshold>:
200015bc:	00020000                                ....

200015c0 <__malloc_av_>:
	...
200015c8:	200015c0 200015c0 200015c8 200015c8     ... ... ... ... 
200015d8:	200015d0 200015d0 200015d8 200015d8     ... ... ... ... 
200015e8:	200015e0 200015e0 200015e8 200015e8     ... ... ... ... 
200015f8:	200015f0 200015f0 200015f8 200015f8     ... ... ... ... 
20001608:	20001600 20001600 20001608 20001608     ... ... ... ... 
20001618:	20001610 20001610 20001618 20001618     ... ... ... ... 
20001628:	20001620 20001620 20001628 20001628      ..  .. (.. (.. 
20001638:	20001630 20001630 20001638 20001638     0.. 0.. 8.. 8.. 
20001648:	20001640 20001640 20001648 20001648     @.. @.. H.. H.. 
20001658:	20001650 20001650 20001658 20001658     P.. P.. X.. X.. 
20001668:	20001660 20001660 20001668 20001668     `.. `.. h.. h.. 
20001678:	20001670 20001670 20001678 20001678     p.. p.. x.. x.. 
20001688:	20001680 20001680 20001688 20001688     ... ... ... ... 
20001698:	20001690 20001690 20001698 20001698     ... ... ... ... 
200016a8:	200016a0 200016a0 200016a8 200016a8     ... ... ... ... 
200016b8:	200016b0 200016b0 200016b8 200016b8     ... ... ... ... 
200016c8:	200016c0 200016c0 200016c8 200016c8     ... ... ... ... 
200016d8:	200016d0 200016d0 200016d8 200016d8     ... ... ... ... 
200016e8:	200016e0 200016e0 200016e8 200016e8     ... ... ... ... 
200016f8:	200016f0 200016f0 200016f8 200016f8     ... ... ... ... 
20001708:	20001700 20001700 20001708 20001708     ... ... ... ... 
20001718:	20001710 20001710 20001718 20001718     ... ... ... ... 
20001728:	20001720 20001720 20001728 20001728      ..  .. (.. (.. 
20001738:	20001730 20001730 20001738 20001738     0.. 0.. 8.. 8.. 
20001748:	20001740 20001740 20001748 20001748     @.. @.. H.. H.. 
20001758:	20001750 20001750 20001758 20001758     P.. P.. X.. X.. 
20001768:	20001760 20001760 20001768 20001768     `.. `.. h.. h.. 
20001778:	20001770 20001770 20001778 20001778     p.. p.. x.. x.. 
20001788:	20001780 20001780 20001788 20001788     ... ... ... ... 
20001798:	20001790 20001790 20001798 20001798     ... ... ... ... 
200017a8:	200017a0 200017a0 200017a8 200017a8     ... ... ... ... 
200017b8:	200017b0 200017b0 200017b8 200017b8     ... ... ... ... 
200017c8:	200017c0 200017c0 200017c8 200017c8     ... ... ... ... 
200017d8:	200017d0 200017d0 200017d8 200017d8     ... ... ... ... 
200017e8:	200017e0 200017e0 200017e8 200017e8     ... ... ... ... 
200017f8:	200017f0 200017f0 200017f8 200017f8     ... ... ... ... 
20001808:	20001800 20001800 20001808 20001808     ... ... ... ... 
20001818:	20001810 20001810 20001818 20001818     ... ... ... ... 
20001828:	20001820 20001820 20001828 20001828      ..  .. (.. (.. 
20001838:	20001830 20001830 20001838 20001838     0.. 0.. 8.. 8.. 
20001848:	20001840 20001840 20001848 20001848     @.. @.. H.. H.. 
20001858:	20001850 20001850 20001858 20001858     P.. P.. X.. X.. 
20001868:	20001860 20001860 20001868 20001868     `.. `.. h.. h.. 
20001878:	20001870 20001870 20001878 20001878     p.. p.. x.. x.. 
20001888:	20001880 20001880 20001888 20001888     ... ... ... ... 
20001898:	20001890 20001890 20001898 20001898     ... ... ... ... 
200018a8:	200018a0 200018a0 200018a8 200018a8     ... ... ... ... 
200018b8:	200018b0 200018b0 200018b8 200018b8     ... ... ... ... 
200018c8:	200018c0 200018c0 200018c8 200018c8     ... ... ... ... 
200018d8:	200018d0 200018d0 200018d8 200018d8     ... ... ... ... 
200018e8:	200018e0 200018e0 200018e8 200018e8     ... ... ... ... 
200018f8:	200018f0 200018f0 200018f8 200018f8     ... ... ... ... 
20001908:	20001900 20001900 20001908 20001908     ... ... ... ... 
20001918:	20001910 20001910 20001918 20001918     ... ... ... ... 
20001928:	20001920 20001920 20001928 20001928      ..  .. (.. (.. 
20001938:	20001930 20001930 20001938 20001938     0.. 0.. 8.. 8.. 
20001948:	20001940 20001940 20001948 20001948     @.. @.. H.. H.. 
20001958:	20001950 20001950 20001958 20001958     P.. P.. X.. X.. 
20001968:	20001960 20001960 20001968 20001968     `.. `.. h.. h.. 
20001978:	20001970 20001970 20001978 20001978     p.. p.. x.. x.. 
20001988:	20001980 20001980 20001988 20001988     ... ... ... ... 
20001998:	20001990 20001990 20001998 20001998     ... ... ... ... 
200019a8:	200019a0 200019a0 200019a8 200019a8     ... ... ... ... 
200019b8:	200019b0 200019b0 200019b8 200019b8     ... ... ... ... 

200019c8 <print_mutex>:
	...

200019d0 <__mutex_array_end>:
200019d0:	10001c91 	.word	0x10001c91
200019d4:	100019fd 	.word	0x100019fd
200019d8:	10001ab5 	.word	0x10001ab5
200019dc:	10001bd5 	.word	0x10001bd5

200019e0 <__frame_dummy_init_array_entry>:
200019e0:	10000339 100024b9                       9....$..
